(lp0
(dp1
S'irp'
p2
I147
sS'data'
p3
(lp4
(dp5
S't'
p6
F0.086796045303344727
sS'v'
p7
I3748
sa(dp8
g6
F0.11803221702575684
sg7
I3732
sa(dp9
g6
F0.14803290367126465
sg7
I3810
sa(dp10
g6
F0.17804503440856934
sg7
I3974
sa(dp11
g6
F0.20934152603149414
sg7
I3901
sa(dp12
g6
F0.24059891700744629
sg7
I3912
sa(dp13
g6
F0.27172636985778809
sg7
I4006
sa(dp14
g6
F0.30418300628662109
sg7
I3962
sa(dp15
g6
F0.33111047744750977
sg7
I4066
sa(dp16
g6
F0.35679268836975098
sg7
I4180
sa(dp17
g6
F0.38300347328186035
sg7
I4184
sa(dp18
g6
F0.41430211067199707
sg7
I4180
sa(dp19
g6
F0.45058894157409668
sg7
I4124
sa(dp20
g6
F0.48680853843688965
sg7
I4122
sa(dp21
g6
F0.52124285697937012
sg7
I4185
sa(dp22
g6
F0.55054903030395508
sg7
I4184
sa(dp23
g6
F0.58172345161437988
sg7
I4183
sa(dp24
g6
F0.61301207542419434
sg7
I4183
sa(dp25
g6
F0.64134097099304199
sg7
I4179
sa(dp26
g6
F0.6745140552520752
sg7
I4183
sa(dp27
g6
F0.70557904243469238
sg7
I4184
sa(dp28
g6
F0.73679137229919434
sg7
I4183
sa(dp29
g6
F0.76803469657897949
sg7
I4118
sa(dp30
g6
F0.7944636344909668
sg7
I4181
sa(dp31
g6
F0.82570648193359375
sg7
I4183
sa(dp32
g6
F0.85681891441345215
sg7
I4123
sa(dp33
g6
F0.88496899604797363
sg7
I4183
sa(dp34
g6
F0.91803956031799316
sg7
I4069
sa(dp35
g6
F0.94928336143493652
sg7
I4119
sa(dp36
g6
F0.98053264617919922
sg7
I4119
sa(dp37
g6
F1.0117595195770264
sg7
I4061
sa(dp38
g6
F1.043189525604248
sg7
I4000
sa(dp39
g6
F1.0770094394683838
sg7
I4059
sa(dp40
g6
F1.1105775833129883
sg7
I4117
sa(dp41
g6
F1.1467235088348389
sg7
I4049
sa(dp42
g6
F1.1779670715332031
sg7
I4007
sa(dp43
g6
F1.2093241214752197
sg7
I4055
sa(dp44
g6
F1.2405779361724854
sg7
I3932
sa(dp45
g6
F1.2717926502227783
sg7
I3983
sa(dp46
g6
F1.3030445575714111
sg7
I4060
sa(dp47
g6
F1.334334135055542
sg7
I3936
sa(dp48
g6
F1.365588903427124
sg7
I3921
sa(dp49
g6
F1.3967406749725342
sg7
I3990
sa(dp50
g6
F1.4267590045928955
sg7
I3919
sa(dp51
g6
F1.4586575031280518
sg7
I3938
sa(dp52
g6
F1.4917786121368408
sg7
I3976
sa(dp53
g6
F1.5229895114898682
sg7
I3912
sa(dp54
g6
F1.5592906475067139
sg7
I3914
sa(dp55
g6
F1.5905759334564209
sg7
I3908
sa(dp56
g6
F1.6217880249023438
sg7
I3910
sa(dp57
g6
F1.6530430316925049
sg7
I3909
sa(dp58
g6
F1.684314489364624
sg7
I3905
sa(dp59
g6
F1.7155575752258301
sg7
I3906
sa(dp60
g6
F1.7473008632659912
sg7
I3901
sa(dp61
g6
F1.7785556316375732
sg7
I3903
sa(dp62
g6
F1.8043320178985596
sg7
I3905
sa(dp63
g6
F1.8356006145477295
sg7
I3909
sa(dp64
g6
F1.8667850494384766
sg7
I3896
sa(dp65
g6
F1.8955230712890625
sg7
I3904
sa(dp66
g6
F1.9286429882049561
sg7
I3901
sa(dp67
g6
F1.9593222141265869
sg7
I3898
sa(dp68
g6
F1.9905726909637451
sg7
I3902
sa(dp69
g6
F2.021775484085083
sg7
I3895
sa(dp70
g6
F2.0530169010162354
sg7
I3889
sa(dp71
g6
F2.0867960453033447
sg7
I3895
sa(dp72
g6
F2.1155550479888916
sg7
I3895
sa(dp73
g6
F2.1467700004577637
sg7
I3890
sa(dp74
g6
F2.1779816150665283
sg7
I3888
sa(dp75
g6
F2.2092864513397217
sg7
I3876
sa(dp76
g6
F2.2405493259429932
sg7
I3889
sa(dp77
g6
F2.2717714309692383
sg7
I3807
sa(dp78
g6
F2.3056080341339111
sg7
I3891
sa(dp79
g6
F2.3343765735626221
sg7
I3723
sa(dp80
g6
F2.3656308650970459
sg7
I3645
sa(dp81
g6
F2.4099545478820801
sg7
I3728
sa(dp82
g6
F2.4492838382720947
sg7
I3729
sa(dp83
g6
F2.4755339622497559
sg7
I3725
sa(dp84
g6
F2.5118238925933838
sg7
I3719
sa(dp85
g6
F2.5480964183807373
sg7
I3811
sa(dp86
g6
F2.5793399810791016
sg7
I3647
sa(dp87
g6
F2.6130497455596924
sg7
I3648
sa(dp88
g6
F2.6418149471282959
sg7
I3645
sa(dp89
g6
F2.673137903213501
sg7
I3726
sa(dp90
g6
F2.7031419277191162
sg7
I3649
sa(dp91
g6
F2.733142614364624
sg7
I3726
sa(dp92
g6
F2.7643699645996094
sg7
I3723
sa(dp93
g6
F2.7906484603881836
sg7
I3643
sa(dp94
g6
F2.8168866634368896
sg7
I3645
sa(dp95
g6
F2.8481099605560303
sg7
I3727
sa(dp96
g6
F2.8793814182281494
sg7
I3810
sa(dp97
g6
F2.9074904918670654
sg7
I3725
sa(dp98
g6
F2.940617561340332
sg7
I3726
sa(dp99
g6
F2.9718616008758545
sg7
I3733
sa(dp100
g6
F3.0031120777130127
sg7
I3726
sa(dp101
g6
F3.0343060493469238
sg7
I3649
sa(dp102
g6
F3.0655441284179688
sg7
I3652
sa(dp103
g6
F3.0968716144561768
sg7
I3730
sa(dp104
g6
F3.1256275177001953
sg7
I3641
sa(dp105
g6
F3.1593496799468994
sg7
I3646
sa(dp106
g6
F3.1907751560211182
sg7
I3722
sa(dp107
g6
F3.2239229679107666
sg7
I3661
sa(dp108
g6
F3.2618615627288818
sg7
I3653
sa(dp109
g6
F3.2931191921234131
sg7
I3725
sa(dp110
g6
F3.3243770599365234
sg7
I3644
sa(dp111
g6
F3.368762731552124
sg7
I3731
sa(dp112
g6
F3.4081389904022217
sg7
I3738
sa(dp113
g6
F3.4343414306640625
sg7
I3650
sa(dp114
g6
F3.4655330181121826
sg7
I3715
sa(dp115
g6
F3.4968030452728271
sg7
I3730
sa(dp116
g6
F3.5268685817718506
sg7
I3648
sa(dp117
g6
F3.5618500709533691
sg7
I3651
sa(dp118
g6
F3.5931010246276855
sg7
I3733
sa(dp119
g6
F3.6193490028381348
sg7
I3812
sa(dp120
g6
F3.6505775451660156
sg7
I3725
sa(dp121
g6
F3.6818611621856689
sg7
I3657
sa(dp122
g6
F3.7125236988067627
sg7
I3647
sa(dp123
g6
F3.7431371212005615
sg7
I3716
sa(dp124
g6
F3.7724909782409668
sg7
I3641
sa(dp125
g6
F3.7993614673614502
sg7
I3728
sa(dp126
g6
F3.8331038951873779
sg7
I3592
sa(dp127
g6
F3.8693673610687256
sg7
I3740
sa(dp128
g6
F3.9006245136260986
sg7
I3730
sa(dp129
g6
F3.93186354637146
sg7
I3880
sa(dp130
g6
F3.9631059169769287
sg7
I3808
sa(dp131
g6
F3.994370698928833
sg7
I3654
sa(dp132
g6
F4.0218665599822998
sg7
I3641
sa(dp133
g6
F4.0518605709075928
sg7
I3725
sa(dp134
g6
F4.085620641708374
sg7
I3646
sa(dp135
g6
F4.1168570518493652
sg7
I3732
sa(dp136
g6
F4.14853835105896
sg7
I3789
sa(dp137
g6
F4.1798040866851807
sg7
I3649
sa(dp138
g6
F4.2068722248077393
sg7
I3710
sa(dp139
g6
F4.2392940521240234
sg7
I3655
sa(dp140
g6
F4.270550012588501
sg7
I3667
sa(dp141
g6
F4.3000075817108154
sg7
I3819
sa(dp142
g6
F4.3343360424041748
sg7
I3646
sa(dp143
g6
F4.3655722141265869
sg7
I3645
sa(dp144
g6
F4.3968505859375
sg7
I3720
sa(dp145
g6
F4.4281136989593506
sg7
I3745
sa(dp146
g6
F4.459367036819458
sg7
I3647
sa(dp147
g6
F4.4949724674224854
sg7
I3653
sa(dp148
g6
F4.5306365489959717
sg7
I3649
sa(dp149
g6
F4.5619316101074219
sg7
I3960
sa(dp150
g6
F4.5931169986724854
sg7
I3564
sa(dp151
g6
F4.6243600845336914
sg7
I3731
sa(dp152
g6
F4.6556122303009033
sg7
I3641
sa(dp153
g6
F4.6868536472320557
sg7
I3808
sa(dp154
g6
F4.7181041240692139
sg7
I3730
sa(dp155
g6
F4.7524964809417725
sg7
I3710
sa(dp156
g6
F4.7818706035614014
sg7
I3724
sa(dp157
g6
F4.8080885410308838
sg7
I3615
sa(dp158
g6
F4.8343274593353271
sg7
I3723
sa(dp159
g6
F4.8637516498565674
sg7
I3690
sa(dp160
g6
F4.8981430530548096
sg7
I3724
sa(dp161
g6
F4.9293045997619629
sg7
I3787
sa(dp162
g6
F4.9605486392974854
sg7
I3817
sa(dp163
g6
F4.9918549060821533
sg7
I3707
sa(dp164
g6
F5.0231087207794189
sg7
I3644
sa(dp165
g6
F5.0568675994873047
sg7
I3730
sa(dp166
g6
F5.0856175422668457
sg7
I3707
sa(dp167
g6
F5.116870641708374
sg7
I3564
sa(dp168
g6
F5.1481280326843262
sg7
I3574
sa(dp169
g6
F5.1793429851531982
sg7
I3732
sa(dp170
g6
F5.2105739116668701
sg7
I3734
sa(dp171
g6
F5.239978551864624
sg7
I3647
sa(dp172
g6
F5.2737329006195068
sg7
I3789
sa(dp173
g6
F5.309377908706665
sg7
I3802
sa(dp174
g6
F5.3437635898590088
sg7
I3713
sa(dp175
g6
F5.37624192237854
sg7
I3889
sa(dp176
g6
F5.4055941104888916
sg7
I3714
sa(dp177
g6
F5.4318339824676514
sg7
I3722
sa(dp178
g6
F5.4580860137939453
sg7
I3786
sa(dp179
g6
F5.4893476963043213
sg7
I3660
sa(dp180
g6
F5.5205960273742676
sg7
I3713
sa(dp181
g6
F5.5518405437469482
sg7
I3805
sa(dp182
g6
F5.5880990028381348
sg7
I3919
sa(dp183
g6
F5.6343445777893066
sg7
I3645
sa(dp184
g6
F5.6755940914154053
sg7
I3792
sa(dp185
g6
F5.7018530368804932
sg7
I3807
sa(dp186
g6
F5.7330889701843262
sg7
I3659
sa(dp187
g6
F5.7638134956359863
sg7
I3732
sa(dp188
g6
F5.7944495677947998
sg7
I3739
sa(dp189
g6
F5.8260233402252197
sg7
I3893
sa(dp190
g6
F5.85727858543396
sg7
I3570
sa(dp191
g6
F5.8918406963348389
sg7
I3565
sa(dp192
g6
F5.9268395900726318
sg7
I3792
sa(dp193
g6
F5.9580986499786377
sg7
I3648
sa(dp194
g6
F5.9874470233917236
sg7
I3712
sa(dp195
g6
F6.0218250751495361
sg7
I3635
sa(dp196
g6
F6.0530726909637451
sg7
I3768
sa(dp197
g6
F6.0805635452270508
sg7
I3680
sa(dp198
g6
F6.1130855083465576
sg7
I3695
sa(dp199
g6
F6.1443245410919189
sg7
I3950
sa(dp200
g6
F6.1736841201782227
sg7
I3935
sa(dp201
g6
F6.2080800533294678
sg7
I3715
sa(dp202
g6
F6.2393410205841064
sg7
I3740
sa(dp203
g6
F6.2705824375152588
sg7
I3711
sa(dp204
g6
F6.3018350601196289
sg7
I3742
sa(dp205
g6
F6.3330824375152588
sg7
I3740
sa(dp206
g6
F6.3706400394439697
sg7
I3468
sa(dp207
g6
F6.4075009822845459
sg7
I3647
sa(dp208
g6
F6.4493253231048584
sg7
I3680
sa(dp209
g6
F6.4868404865264893
sg7
I3707
sa(dp210
g6
F6.5180544853210449
sg7
I3561
sa(dp211
g6
F6.5493161678314209
sg7
I3710
sa(dp212
g6
F6.5805985927581787
sg7
I3638
sa(dp213
g6
F6.6118426322937012
sg7
I3699
sa(dp214
g6
F6.643104076385498
sg7
I3532
sa(dp215
g6
F6.6743564605712891
sg7
I3726
sa(dp216
g6
F6.7005579471588135
sg7
I3919
sa(dp217
g6
F6.7272269725799561
sg7
I3785
sa(dp218
g6
F6.7585036754608154
sg7
I3896
sa(dp219
g6
F6.7893385887145996
sg7
I3569
sa(dp220
g6
F6.8274345397949219
sg7
I3869
sa(dp221
g6
F6.8711154460906982
sg7
I3795
sa(dp222
g6
F6.9030630588531494
sg7
I4017
sa(dp223
g6
F6.9343416690826416
sg7
I2975
sa(dp224
g6
F6.9656000137329102
sg7
I3848
sa(dp225
g6
F6.9961974620819092
sg7
I3694
sa(dp226
g6
F7.0294816493988037
sg7
I3588
sa(dp227
g6
F7.0651476383209229
sg7
I3663
sa(dp228
g6
F7.1030914783477783
sg7
I3645
sa(dp229
g6
F7.1374380588531494
sg7
I3614
sa(dp230
g6
F7.1718051433563232
sg7
I3760
sa(dp231
g6
F7.2030744552612305
sg7
I3691
sa(dp232
g6
F7.2343356609344482
sg7
I3691
sa(dp233
g6
F7.265540599822998
sg7
I3788
sa(dp234
g6
F7.2967710494995117
sg7
I3704
sa(dp235
g6
F7.3280694484710693
sg7
I3483
sa(dp236
g6
F7.3593084812164307
sg7
I3644
sa(dp237
g6
F7.3905594348907471
sg7
I2903
sa(dp238
g6
F7.4218389987945557
sg7
I3874
sa(dp239
g6
F7.4530642032623291
sg7
I3769
sa(dp240
g6
F7.4842751026153564
sg7
I3941
sa(dp241
g6
F7.5155508518218994
sg7
I3452
sa(dp242
g6
F7.5468325614929199
sg7
I3881
sa(dp243
g6
F7.5811998844146729
sg7
I3948
sa(dp244
g6
F7.6080648899078369
sg7
I3997
sa(dp245
g6
F7.6318244934082031
sg7
I3527
sa(dp246
g6
F7.6580884456634521
sg7
I3333
sa(dp247
g6
F7.6893317699432373
sg7
I3391
sa(dp248
g6
F7.7205820083618164
sg7
I3530
sa(dp249
g6
F7.7518136501312256
sg7
I3789
sa(dp250
g6
F7.7830445766448975
sg7
I3213
sa(dp251
g6
F7.8105530738830566
sg7
I3590
sa(dp252
g6
F7.8430736064910889
sg7
I3882
sa(dp253
g6
F7.8793299198150635
sg7
I3446
sa(dp254
g6
F7.9155833721160889
sg7
I3099
sa(dp255
g6
F7.9468464851379395
sg7
I2633
sa(dp256
g6
F7.9780550003051758
sg7
I3370
sa(dp257
g6
F8.0092644691467285
sg7
I2415
sa(dp258
g6
F8.0386741161346436
sg7
I3496
sa(dp259
g6
F8.0712144374847412
sg7
I3650
sa(dp260
g6
F8.1005699634552002
sg7
I3494
sa(dp261
g6
F8.1305620670318604
sg7
I3533
sa(dp262
g6
F8.1655757427215576
sg7
I3276
sa(dp263
g6
F8.1968350410461426
sg7
I2886
sa(dp264
g6
F8.2230751514434814
sg7
I3609
sa(dp265
g6
F8.2543246746063232
sg7
I3775
sa(dp266
g6
F8.2905795574188232
sg7
I2836
sa(dp267
g6
F8.3238894939422607
sg7
I2664
sa(dp268
g6
F8.3520140647888184
sg7
I3534
sa(dp269
g6
F8.3780691623687744
sg7
I3824
sa(dp270
g6
F8.4093334674835205
sg7
I2625
sa(dp271
g6
F8.4405715465545654
sg7
I3438
sa(dp272
g6
F8.4718086719512939
sg7
I3384
sa(dp273
g6
F8.5030777454376221
sg7
I3167
sa(dp274
g6
F8.534318208694458
sg7
I3439
sa(dp275
g6
F8.5660820007324219
sg7
I3463
sa(dp276
g6
F8.5973184108734131
sg7
I2465
sa(dp277
g6
F8.6292774677276611
sg7
I3612
sa(dp278
g6
F8.6580126285552979
sg7
I3078
sa(dp279
g6
F8.6886589527130127
sg7
I2485
sa(dp280
g6
F8.7230422496795654
sg7
I2836
sa(dp281
g6
F8.7568020820617676
sg7
I2870
sa(dp282
g6
F8.7855708599090576
sg7
I3629
sa(dp283
g6
F8.8118259906768799
sg7
I2341
sa(dp284
g6
F8.8435828685760498
sg7
I3082
sa(dp285
g6
F8.8747856616973877
sg7
I3381
sa(dp286
g6
F8.9005095958709717
sg7
I3124
sa(dp287
g6
F8.9318039417266846
sg7
I3316
sa(dp288
g6
F8.9630405902862549
sg7
I3095
sa(dp289
g6
F8.9924004077911377
sg7
I3587
sa(dp290
g6
F9.0267930030822754
sg7
I2266
sa(dp291
g6
F9.0574264526367188
sg7
I3306
sa(dp292
g6
F9.0880675315856934
sg7
I2696
sa(dp293
g6
F9.1243116855621338
sg7
I1625
sa(dp294
g6
F9.1593115329742432
sg7
I2435
sa(dp295
g6
F9.1892900466918945
sg7
I3373
sa(dp296
g6
F9.2155075073242188
sg7
I3084
sa(dp297
g6
F9.2486474514007568
sg7
I2545
sa(dp298
g6
F9.2868185043334961
sg7
I2320
sa(dp299
g6
F9.318077564239502
sg7
I2851
sa(dp300
g6
F9.3443081378936768
sg7
I2351
sa(dp301
g6
F9.3755419254302979
sg7
I2589
sa(dp302
g6
F9.40677809715271
sg7
I3432
sa(dp303
g6
F9.4380452632904053
sg7
I1315
sa(dp304
g6
F9.4692814350128174
sg7
I2452
sa(dp305
g6
F9.5004837512969971
sg7
I2272
sa(dp306
g6
F9.531782865524292
sg7
I2494
sa(dp307
g6
F9.563075065612793
sg7
I3195
sa(dp308
g6
F9.598853588104248
sg7
I2997
sa(dp309
g6
F9.6344978809356689
sg7
I2850
sa(dp310
g6
F9.6655685901641846
sg7
I2499
sa(dp311
g6
F9.6968443393707275
sg7
I3033
sa(dp312
g6
F9.7280995845794678
sg7
I2999
sa(dp313
g6
F9.7556450366973877
sg7
I2815
sa(dp314
g6
F9.7881419658660889
sg7
I4053
sa(dp315
g6
F9.8193116188049316
sg7
I1518
sa(dp316
g6
F9.8505480289459229
sg7
I2955
sa(dp317
g6
F9.881817102432251
sg7
I1444
sa(dp318
g6
F9.9131162166595459
sg7
I2849
sa(dp319
g6
F9.9475295543670654
sg7
I3294
sa(dp320
g6
F9.9819314479827881
sg7
I3042
sa(dp321
g6
F10.013136148452759
sg7
I2325
sa(dp322
g6
F10.044285535812378
sg7
I1908
sa(dp323
g6
F10.075536012649536
sg7
I1105
sa(dp324
g6
F10.106825590133667
sg7
I2524
sa(dp325
g6
F10.138134241104126
sg7
I3105
sa(dp326
g6
F10.165815591812134
sg7
I2034
sa(dp327
g6
F10.198254346847534
sg7
I1229
sa(dp328
g6
F10.229314565658569
sg7
I2077
sa(dp329
g6
F10.260627508163452
sg7
I778
sa(dp330
g6
F10.296941518783569
sg7
I2196
sa(dp331
g6
F10.331931352615356
sg7
I1047
sa(dp332
g6
F10.361908197402954
sg7
I2386
sa(dp333
g6
F10.393163442611694
sg7
I1709
sa(dp334
g6
F10.424429178237915
sg7
I2465
sa(dp335
g6
F10.455646991729736
sg7
I2590
sa(dp336
g6
F10.490639925003052
sg7
I1315
sa(dp337
g6
F10.520653486251831
sg7
I1369
sa(dp338
g6
F10.551922082901001
sg7
I1306
sa(dp339
g6
F10.588191509246826
sg7
I2180
sa(dp340
g6
F10.619427919387817
sg7
I2665
sa(dp341
g6
F10.650676965713501
sg7
I459
sa(dp342
g6
F10.681929588317871
sg7
I1212
sa(dp343
g6
F10.713144540786743
sg7
I2098
sa(dp344
g6
F10.744382619857788
sg7
I735
sa(dp345
g6
F10.775667428970337
sg7
I2690
sa(dp346
g6
F10.811908960342407
sg7
I2824
sa(dp347
g6
F10.848165988922119
sg7
I2032
sa(dp348
g6
F10.881413459777832
sg7
I1345
sa(dp349
g6
F10.916378736495972
sg7
I1963
sa(dp350
g6
F10.949408054351807
sg7
I2983
sa(dp351
g6
F10.980653047561646
sg7
I1692
sa(dp352
g6
F11.011892080307007
sg7
I1876
sa(dp353
g6
F11.043174028396606
sg7
I2249
sa(dp354
g6
F11.089429616928101
sg7
I2567
sa(dp355
g6
F11.130699396133423
sg7
I912
sa(dp356
g6
F11.156907558441162
sg7
I1838
sa(dp357
g6
F11.188591718673706
sg7
I2711
sa(dp358
g6
F11.219850540161133
sg7
I1056
sa(dp359
g6
F11.25066876411438
sg7
I248
sa(dp360
g6
F11.281911134719849
sg7
I1098
sa(dp361
g6
F11.313157558441162
sg7
I1438
sa(dp362
g6
F11.344429492950439
sg7
I660
sa(dp363
g6
F11.375667333602905
sg7
I1690
sa(dp364
g6
F11.406930208206177
sg7
I2491
sa(dp365
g6
F11.438162088394165
sg7
I1015
sa(dp366
g6
F11.469399690628052
sg7
I591
sa(dp367
g6
F11.496919870376587
sg7
I1789
sa(dp368
g6
F11.521258592605591
sg7
I1129
sa(dp369
g6
F11.544385671615601
sg7
I656
sa(dp370
g6
F11.575684070587158
sg7
I1537
sa(dp371
g6
F11.611933469772339
sg7
I-300
sa(dp372
g6
F11.643119096755981
sg7
I66
sa(dp373
g6
F11.674780607223511
sg7
I1265
sa(dp374
g6
F11.706074476242065
sg7
I465
sa(dp375
g6
F11.736890554428101
sg7
I440
sa(dp376
g6
F11.768122434616089
sg7
I2620
sa(dp377
g6
F11.797533988952637
sg7
I-807
sa(dp378
g6
F11.829473972320557
sg7
I822
sa(dp379
g6
F11.861263513565063
sg7
I1773
sa(dp380
g6
F11.896826028823853
sg7
I-439
sa(dp381
g6
F11.931898832321167
sg7
I1282
sa(dp382
g6
F11.961063623428345
sg7
I1459
sa(dp383
g6
F11.987285852432251
sg7
I992
sa(dp384
g6
F12.013124704360962
sg7
I1489
sa(dp385
g6
F12.044320106506348
sg7
I2191
sa(dp386
g6
F12.080585479736328
sg7
I1494
sa(dp387
g6
F12.111917972564697
sg7
I288
sa(dp388
g6
F12.13813304901123
sg7
I1038
sa(dp389
g6
F12.166898012161255
sg7
I1383
sa(dp390
g6
F12.200670957565308
sg7
I721
sa(dp391
g6
F12.231296539306641
sg7
I603
sa(dp392
g6
F12.261934041976929
sg7
I279
sa(dp393
g6
F12.293190956115723
sg7
I1653
sa(dp394
g6
F12.324430227279663
sg7
I866
sa(dp395
g6
F12.355661630630493
sg7
I2370
sa(dp396
g6
F12.386901140213013
sg7
I635
sa(dp397
g6
F12.433168649673462
sg7
I-8
sa(dp398
g6
F12.474399566650391
sg7
I631
sa(dp399
g6
F12.500592947006226
sg7
I-334
sa(dp400
g6
F12.53811240196228
sg7
I240
sa(dp401
g6
F12.575657606124878
sg7
I1822
sa(dp402
g6
F12.601903200149536
sg7
I-581
sa(dp403
g6
F12.633142471313477
sg7
I918
sa(dp404
g6
F12.66439151763916
sg7
I539
sa(dp405
g6
F12.695619583129883
sg7
I1284
sa(dp406
g6
F12.726862668991089
sg7
I-350
sa(dp407
g6
F12.75814414024353
sg7
I742
sa(dp408
g6
F12.789402008056641
sg7
I838
sa(dp409
g6
F12.818784475326538
sg7
I664
sa(dp410
g6
F12.851256608963013
sg7
I997
sa(dp411
g6
F12.880637407302856
sg7
I1428
sa(dp412
g6
F12.911864519119263
sg7
I-210
sa(dp413
g6
F12.943111181259155
sg7
I81
sa(dp414
g6
F12.974387884140015
sg7
I-565
sa(dp415
g6
F13.00563645362854
sg7
I-487
sa(dp416
g6
F13.03308367729187
sg7
I-112
sa(dp417
g6
F13.065584421157837
sg7
I0
sa(dp418
g6
F13.096891164779663
sg7
I1896
sa(dp419
g6
F13.12817645072937
sg7
I-322
sa(dp420
g6
F13.15942645072937
sg7
I627
sa(dp421
g6
F13.188765525817871
sg7
I359
sa(dp422
g6
F13.223146200180054
sg7
I172
sa(dp423
g6
F13.254369974136353
sg7
I461
sa(dp424
g6
F13.280617952346802
sg7
I462
sa(dp425
g6
F13.311865091323853
sg7
I0
sa(dp426
g6
F13.34310507774353
sg7
I175
sa(dp427
g6
F13.374366521835327
sg7
I6
sa(dp428
g6
F13.405627489089966
sg7
I828
sa(dp429
g6
F13.43889594078064
sg7
I830
sa(dp430
g6
F13.472018480300903
sg7
I-694
sa(dp431
g6
F13.503117561340332
sg7
I-231
sa(dp432
g6
F13.534358024597168
sg7
I0
sa(dp433
g6
F13.565641164779663
sg7
I174
sa(dp434
g6
F13.596907138824463
sg7
I289
sa(dp435
g6
F13.628117561340332
sg7
I279
sa(dp436
g6
F13.65934944152832
sg7
I-1108
sa(dp437
g6
F13.690578460693359
sg7
I637
sa(dp438
g6
F13.728084325790405
sg7
I198
sa(dp439
g6
F13.763762950897217
sg7
I430
sa(dp440
g6
F13.793139696121216
sg7
I448
sa(dp441
g6
F13.82439398765564
sg7
I508
sa(dp442
g6
F13.855636835098267
sg7
I-167
sa(dp443
g6
F13.886867046356201
sg7
I-370
sa(dp444
g6
F13.923112630844116
sg7
I-120
sa(dp445
g6
F13.959367513656616
sg7
I626
sa(dp446
g6
F13.990621089935303
sg7
I-1061
sa(dp447
g6
F14.021865129470825
sg7
I0
sa(dp448
g6
F14.053113460540771
sg7
I847
sa(dp449
g6
F14.081856966018677
sg7
I-78
sa(dp450
g6
F14.115612030029297
sg7
I809
sa(dp451
g6
F14.146866083145142
sg7
I287
sa(dp452
g6
F14.177293539047241
sg7
I-457
sa(dp453
g6
F14.219818830490112
sg7
I-578
sa(dp454
g6
F14.260628461837769
sg7
I308
sa(dp455
g6
F14.289371013641357
sg7
I1006
sa(dp456
g6
F14.315618515014648
sg7
I-709
sa(dp457
g6
F14.34685492515564
sg7
I-453
sa(dp458
g6
F14.381878137588501
sg7
I-187
sa(dp459
g6
F14.411901712417603
sg7
I-126
sa(dp460
g6
F14.438145399093628
sg7
I-115
sa(dp461
g6
F14.469364404678345
sg7
I-403
sa(dp462
g6
F14.500568628311157
sg7
I877
sa(dp463
g6
F14.53184700012207
sg7
I-102
sa(dp464
g6
F14.563139200210571
sg7
I-235
sa(dp465
g6
F14.594380617141724
sg7
I0
sa(dp466
g6
F14.625633001327515
sg7
I1099
sa(dp467
g6
F14.656892538070679
sg7
I0
sa(dp468
g6
F14.693141937255859
sg7
I0
sa(dp469
g6
F14.729381561279297
sg7
I-224
sa(dp470
g6
F14.760642528533936
sg7
I458
sa(dp471
g6
F14.790633916854858
sg7
I632
sa(dp472
g6
F14.822293043136597
sg7
I-183
sa(dp473
g6
F14.852867841720581
sg7
I0
sa(dp474
g6
F14.886817932128906
sg7
I1036
sa(dp475
g6
F14.918038606643677
sg7
I1089
sa(dp476
g6
F14.949290037155151
sg7
I758
sa(dp477
g6
F14.985604524612427
sg7
I634
sa(dp478
g6
F15.016835451126099
sg7
I0
sa(dp479
g6
F15.048034429550171
sg7
I-335
sa(dp480
g6
F15.080533742904663
sg7
I0
sa(dp481
g6
F15.11314845085144
sg7
I-87
sa(dp482
g6
F15.144361019134521
sg7
I106
sa(dp483
g6
F15.170461416244507
sg7
I-1206
sa(dp484
g6
F15.200531005859375
sg7
I918
sa(dp485
g6
F15.235624074935913
sg7
I196
sa(dp486
g6
F15.26683783531189
sg7
I0
sa(dp487
g6
F15.29815149307251
sg7
I1068
sa(dp488
g6
F15.334420442581177
sg7
I522
sa(dp489
g6
F15.365601539611816
sg7
I0
sa(dp490
g6
F15.395596981048584
sg7
I0
sa(dp491
g6
F15.430573701858521
sg7
I-372
sa(dp492
g6
F15.461828947067261
sg7
I829
sa(dp493
g6
F15.488185167312622
sg7
I38
sa(dp494
g6
F15.519446134567261
sg7
I0
sa(dp495
g6
F15.550621509552002
sg7
I0
sa(dp496
g6
F15.581877470016479
sg7
I-612
sa(dp497
g6
F15.616258382797241
sg7
I446
sa(dp498
g6
F15.645627498626709
sg7
I0
sa(dp499
g6
F15.675076723098755
sg7
I-46
sa(dp500
g6
F15.709447145462036
sg7
I0
sa(dp501
g6
F15.740625619888306
sg7
I447
sa(dp502
g6
F15.766854047775269
sg7
I0
sa(dp503
g6
F15.798133134841919
sg7
I112
sa(dp504
g6
F15.829404592514038
sg7
I0
sa(dp505
g6
F15.860629320144653
sg7
I-476
sa(dp506
g6
F15.891874074935913
sg7
I0
sa(dp507
g6
F15.92374849319458
sg7
I0
sa(dp508
g6
F15.95561957359314
sg7
I46
sa(dp509
g6
F15.987026929855347
sg7
I0
sa(dp510
g6
F16.025143146514893
sg7
I-247
sa(dp511
g6
F16.063173055648804
sg7
I0
sa(dp512
g6
F16.099417924880981
sg7
I542
sa(dp513
g6
F16.130608558654785
sg7
I281
sa(dp514
g6
F16.161870002746582
sg7
I612
sa(dp515
g6
F16.193191528320312
sg7
I449
sa(dp516
g6
F16.224472522735596
sg7
I0
sa(dp517
g6
F16.255647897720337
sg7
I0
sa(dp518
g6
F16.281862497329712
sg7
I447
sa(dp519
g6
F16.309355497360229
sg7
I0
sa(dp520
g6
F16.341840982437134
sg7
I544
sa(dp521
g6
F16.373158693313599
sg7
I700
sa(dp522
g6
F16.399415493011475
sg7
I0
sa(dp523
g6
F16.429434537887573
sg7
I495
sa(dp524
g6
F16.464421033859253
sg7
I-105
sa(dp525
g6
F16.498706102371216
sg7
I159
sa(dp526
g6
F16.526835203170776
sg7
I271
sa(dp527
g6
F16.5643470287323
sg7
I0
sa(dp528
g6
F16.603165864944458
sg7
I0
sa(dp529
g6
F16.630036592483521
sg7
I192
sa(dp530
g6
F16.661823034286499
sg7
I374
sa(dp531
g6
F16.693134546279907
sg7
I0
sa(dp532
g6
F16.724406480789185
sg7
I277
sa(dp533
g6
F16.755605936050415
sg7
I541
sa(dp534
g6
F16.785590887069702
sg7
I0
sa(dp535
g6
F16.815574407577515
sg7
I0
sa(dp536
g6
F16.855022192001343
sg7
I0
sa(dp537
g6
F16.894397020339966
sg7
I-609
sa(dp538
g6
F16.926082134246826
sg7
I0
sa(dp539
g6
F16.957329988479614
sg7
I0
sa(dp540
g6
F16.988146066665649
sg7
I601
sa(dp541
g6
F17.019390106201172
sg7
I630
sa(dp542
g6
F17.048007726669312
sg7
I0
sa(dp543
g6
F17.080447435379028
sg7
I0
sa(dp544
g6
F17.117407083511353
sg7
I0
sa(dp545
g6
F17.153728008270264
sg7
I549
sa(dp546
g6
F17.183158159255981
sg7
I0
sa(dp547
g6
F17.214409589767456
sg7
I1053
sa(dp548
g6
F17.245600938796997
sg7
I744
sa(dp549
g6
F17.278908491134644
sg7
I179
sa(dp550
g6
F17.317012071609497
sg7
I0
sa(dp551
g6
F17.34813404083252
sg7
I1076
sa(dp552
g6
F17.379390478134155
sg7
I0
sa(dp553
g6
F17.410584211349487
sg7
I103
sa(dp554
g6
F17.441856622695923
sg7
I0
sa(dp555
g6
F17.473176956176758
sg7
I634
sa(dp556
g6
F17.504432916641235
sg7
I259
sa(dp557
g6
F17.535596609115601
sg7
I722
sa(dp558
g6
F17.566849946975708
sg7
I374
sa(dp559
g6
F17.610687017440796
sg7
I0
sa(dp560
g6
F17.651931524276733
sg7
I0
sa(dp561
g6
F17.680679559707642
sg7
I-212
sa(dp562
g6
F17.711938142776489
sg7
I0
sa(dp563
g6
F17.743182420730591
sg7
I-352
sa(dp564
g6
F17.774467706680298
sg7
I0
sa(dp565
g6
F17.805676221847534
sg7
I-37
sa(dp566
g6
F17.836938619613647
sg7
I0
sa(dp567
g6
F17.870723962783813
sg7
I531
sa(dp568
g6
F17.89941143989563
sg7
I0
sa(dp569
g6
F17.925596952438354
sg7
I368
sa(dp570
g6
F17.95191216468811
sg7
I541
sa(dp571
g6
F17.983186960220337
sg7
I-85
sa(dp572
g6
F18.01444149017334
sg7
I0
sa(dp573
g6
F18.045627355575562
sg7
I0
sa(dp574
g6
F18.076786518096924
sg7
I110
sa(dp575
g6
F18.108047008514404
sg7
I0
sa(dp576
g6
F18.14741587638855
sg7
I0
sa(dp577
g6
F18.181782484054565
sg7
I915
sa(dp578
g6
F18.213037729263306
sg7
I0
sa(dp579
g6
F18.244296550750732
sg7
I540
sa(dp580
g6
F18.275543928146362
sg7
I556
sa(dp581
g6
F18.306792020797729
sg7
I623
sa(dp582
g6
F18.338037490844727
sg7
I548
sa(dp583
g6
F18.369292497634888
sg7
I0
sa(dp584
g6
F18.40053653717041
sg7
I0
sa(dp585
g6
F18.431823015213013
sg7
I0
sa(dp586
g6
F18.459331035614014
sg7
I0
sa(dp587
g6
F18.491791963577271
sg7
I58
sa(dp588
g6
F18.52303147315979
sg7
I0
sa(dp589
g6
F18.556285619735718
sg7
I0
sa(dp590
g6
F18.592447519302368
sg7
I-182
sa(dp591
g6
F18.626700162887573
sg7
I-108
sa(dp592
g6
F18.658039569854736
sg7
I0
sa(dp593
g6
F18.687406539916992
sg7
I564
sa(dp594
g6
F18.726155042648315
sg7
I-102
sa(dp595
g6
F18.761789560317993
sg7
I0
sa(dp596
g6
F18.79303765296936
sg7
I0
sa(dp597
g6
F18.824321508407593
sg7
I537
sa(dp598
g6
F18.855619192123413
sg7
I0
sa(dp599
g6
F18.886929035186768
sg7
I0
sa(dp600
g6
F18.918199062347412
sg7
I-838
sa(dp601
g6
F18.949416875839233
sg7
I0
sa(dp602
g6
F18.975660562515259
sg7
I-81
sa(dp603
g6
F19.006901979446411
sg7
I-215
sa(dp604
g6
F19.038131475448608
sg7
I0
sa(dp605
g6
F19.067554473876953
sg7
I272
sa(dp606
g6
F19.099488973617554
sg7
I288
sa(dp607
g6
F19.128188848495483
sg7
I758
sa(dp608
g6
F19.155750036239624
sg7
I0
sa(dp609
g6
F19.187645196914673
sg7
I196
sa(dp610
g6
F19.223212003707886
sg7
I0
sa(dp611
g6
F19.259466409683228
sg7
I459
sa(dp612
g6
F19.295809984207153
sg7
I0
sa(dp613
g6
F19.327064752578735
sg7
I0
sa(dp614
g6
F19.358221530914307
sg7
I0
sa(dp615
g6
F19.389461040496826
sg7
I507
sa(dp616
g6
F19.420724153518677
sg7
I0
sa(dp617
g6
F19.451978921890259
sg7
I-645
sa(dp618
g6
F19.481326580047607
sg7
I0
sa(dp619
g6
F19.515696048736572
sg7
I0
sa(dp620
g6
F19.546977996826172
sg7
I-167
sa(dp621
g6
F19.573216676712036
sg7
I-253
sa(dp622
g6
F19.613213539123535
sg7
I0
sa(dp623
g6
F19.653184175491333
sg7
I0
sa(dp624
g6
F19.679415464401245
sg7
I451
sa(dp625
g6
F19.710648536682129
sg7
I353
sa(dp626
g6
F19.741919994354248
sg7
I0
sa(dp627
g6
F19.77321457862854
sg7
I0
sa(dp628
g6
F19.80322003364563
sg7
I0
sa(dp629
g6
F19.835855007171631
sg7
I0
sa(dp630
g6
F19.874552965164185
sg7
I17
sa(dp631
g6
F19.910694599151611
sg7
I0
sa(dp632
g6
F19.94697117805481
sg7
I555
sa(dp633
g6
F19.978200674057007
sg7
I0
sa(dp634
g6
F20.006956577301025
sg7
I0
sa(dp635
g6
F20.040722131729126
sg7
I0
sa(dp636
g6
F20.071967601776123
sg7
I0
sa(dp637
g6
F20.103644609451294
sg7
I-201
sa(dp638
g6
F20.134882688522339
sg7
I-193
sa(dp639
g6
F20.165705442428589
sg7
I0
sa(dp640
g6
F20.196959495544434
sg7
I366
sa(dp641
g6
F20.225662469863892
sg7
I448
sa(dp642
g6
F20.259425401687622
sg7
I0
sa(dp643
g6
F20.290704011917114
sg7
I0
sa(dp644
g6
F20.320687532424927
sg7
I0
sa(dp645
g6
F20.350669145584106
sg7
I0
sa(dp646
g6
F20.381293535232544
sg7
I0
sa(dp647
g6
F20.414450407028198
sg7
I0
sa(dp648
g6
F20.446325063705444
sg7
I0
sa(dp649
g6
F20.475723505020142
sg7
I0
sa(dp650
g6
F20.506987571716309
sg7
I0
sa(dp651
g6
F20.5382080078125
sg7
I0
sa(dp652
g6
F20.569401979446411
sg7
I0
sa(dp653
g6
F20.60060453414917
sg7
I-265
sa(dp654
g6
F20.631835460662842
sg7
I287
sa(dp655
g6
F20.663130044937134
sg7
I0
sa(dp656
g6
F20.689456224441528
sg7
I283
sa(dp657
g6
F20.720717668533325
sg7
I0
sa(dp658
g6
F20.756973028182983
sg7
I0
sa(dp659
g6
F20.793138027191162
sg7
I573
sa(dp660
g6
F20.826881647109985
sg7
I1522
sa(dp661
g6
F20.85571551322937
sg7
I574
sa(dp662
g6
F20.886974096298218
sg7
I0
sa(dp663
g6
F20.9181969165802
sg7
I457
sa(dp664
g6
F20.952383518218994
sg7
I-241
sa(dp665
g6
F20.991139650344849
sg7
I124
sa(dp666
g6
F21.021953582763672
sg7
I0
sa(dp667
g6
F21.053139448165894
sg7
I0
sa(dp668
g6
F21.084395170211792
sg7
I0
sa(dp669
g6
F21.11768651008606
sg7
I0
sa(dp670
g6
F21.152711629867554
sg7
I0
sa(dp671
g6
F21.185693025588989
sg7
I0
sa(dp672
g6
F21.216933012008667
sg7
I0
sa(dp673
g6
F21.247561693191528
sg7
I0
sa(dp674
g6
F21.278160333633423
sg7
I0
sa(dp675
g6
F21.309413194656372
sg7
I-328
sa(dp676
g6
F21.344441652297974
sg7
I0
sa(dp677
g6
F21.374442100524902
sg7
I0
sa(dp678
g6
F21.403827428817749
sg7
I613
sa(dp679
g6
F21.433192491531372
sg7
I0
sa(dp680
g6
F21.464441537857056
sg7
I0
sa(dp681
g6
F21.499419450759888
sg7
I0
sa(dp682
g6
F21.529420137405396
sg7
I0
sa(dp683
g6
F21.555689096450806
sg7
I0
sa(dp684
g6
F21.58695912361145
sg7
I0
sa(dp685
g6
F21.623183965682983
sg7
I0
sa(dp686
g6
F21.65755295753479
sg7
I0
sa(dp687
g6
F21.686967611312866
sg7
I0
sa(dp688
g6
F21.713195085525513
sg7
I0
sa(dp689
g6
F21.744406938552856
sg7
I0
sa(dp690
g6
F21.775647878646851
sg7
I0
sa(dp691
g6
F21.806927442550659
sg7
I0
sa(dp692
g6
F21.839422464370728
sg7
I0
sa(dp693
g6
F21.866920471191406
sg7
I0
sa(dp694
g6
F21.898150444030762
sg7
I482
sa(dp695
g6
F21.93441104888916
sg7
I0
sa(dp696
g6
F21.970669031143188
sg7
I0
sa(dp697
g6
F22.001909494400024
sg7
I0
sa(dp698
g6
F22.038815975189209
sg7
I0
sa(dp699
g6
F22.075679540634155
sg7
I0
sa(dp700
g6
F22.106927633285522
sg7
I0
sa(dp701
g6
F22.138177633285522
sg7
I0
sa(dp702
g6
F22.168799638748169
sg7
I0
sa(dp703
g6
F22.199408054351807
sg7
I443
sa(dp704
g6
F22.230658054351807
sg7
I0
sa(dp705
g6
F22.260677099227905
sg7
I0
sa(dp706
g6
F22.290688991546631
sg7
I0
sa(dp707
g6
F22.326949834823608
sg7
I0
sa(dp708
g6
F22.361325025558472
sg7
I-77
sa(dp709
g6
F22.39775013923645
sg7
I0
sa(dp710
g6
F22.435879945755005
sg7
I0
sa(dp711
g6
F22.481127500534058
sg7
I90
sa(dp712
g6
F22.521116971969604
sg7
I0
sa(dp713
g6
F22.546931982040405
sg7
I0
sa(dp714
g6
F22.57818865776062
sg7
I548
sa(dp715
g6
F22.614434957504272
sg7
I0
sa(dp716
g6
F22.650647878646851
sg7
I0
sa(dp717
g6
F22.681871652603149
sg7
I171
sa(dp718
g6
F22.71316123008728
sg7
I0
sa(dp719
g6
F22.744394540786743
sg7
I0
sa(dp720
g6
F22.773148536682129
sg7
I0
sa(dp721
g6
F22.801926374435425
sg7
I541
sa(dp722
g6
F22.833177089691162
sg7
I0
sa(dp723
g6
F22.869416952133179
sg7
I0
sa(dp724
g6
F22.905669450759888
sg7
I0
sa(dp725
g6
F22.937365531921387
sg7
I0
sa(dp726
g6
F22.968580007553101
sg7
I0
sa(dp727
g6
F22.999399900436401
sg7
I0
sa(dp728
g6
F23.030663728713989
sg7
I0
sa(dp729
g6
F23.061883211135864
sg7
I0
sa(dp730
g6
F23.091268539428711
sg7
I-244
sa(dp731
g6
F23.125653505325317
sg7
I0
sa(dp732
g6
F23.156919240951538
sg7
I-183
sa(dp733
g6
F23.185683965682983
sg7
I0
sa(dp734
g6
F23.214424610137939
sg7
I0
sa(dp735
g6
F23.245635032653809
sg7
I0
sa(dp736
g6
F23.276885032653809
sg7
I0
sa(dp737
g6
F23.308180570602417
sg7
I0
sa(dp738
g6
F23.342566013336182
sg7
I-547
sa(dp739
g6
F23.386278390884399
sg7
I-178
sa(dp740
g6
F23.426891088485718
sg7
I-497
sa(dp741
g6
F23.453161001205444
sg7
I0
sa(dp742
g6
F23.484423398971558
sg7
I0
sa(dp743
g6
F23.515684366226196
sg7
I0
sa(dp744
g6
F23.546914577484131
sg7
I0
sa(dp745
g6
F23.579427003860474
sg7
I0
sa(dp746
g6
F23.606923580169678
sg7
I0
sa(dp747
g6
F23.638151884078979
sg7
I0
sa(dp748
g6
F23.669418573379517
sg7
I369
sa(dp749
g6
F23.706775426864624
sg7
I0
sa(dp750
g6
F23.743658304214478
sg7
I0
sa(dp751
g6
F23.770659208297729
sg7
I0
sa(dp752
g6
F23.801903009414673
sg7
I85
sa(dp753
g6
F23.836930513381958
sg7
I282
sa(dp754
g6
F23.868187189102173
sg7
I0
sa(dp755
g6
F23.899397134780884
sg7
I0
sa(dp756
g6
F23.930644512176514
sg7
I0
sa(dp757
g6
F23.961898565292358
sg7
I551
sa(dp758
g6
F23.993136644363403
sg7
I-991
sa(dp759
g6
F24.024407625198364
sg7
I833
sa(dp760
g6
F24.055618047714233
sg7
I640
sa(dp761
g6
F24.086859941482544
sg7
I0
sa(dp762
g6
F24.118148565292358
sg7
I0
sa(dp763
g6
F24.149412393569946
sg7
I0
sa(dp764
g6
F24.180650949478149
sg7
I108
sa(dp765
g6
F24.211887121200562
sg7
I0
sa(dp766
g6
F24.243114471435547
sg7
I0
sa(dp767
g6
F24.270624399185181
sg7
I0
sa(dp768
g6
F24.301279544830322
sg7
I-189
sa(dp769
g6
F24.331908464431763
sg7
I0
sa(dp770
g6
F24.361295461654663
sg7
I0
sa(dp771
g6
F24.389414072036743
sg7
I462
sa(dp772
g6
F24.415667533874512
sg7
I-169
sa(dp773
g6
F24.441911458969116
sg7
I0
sa(dp774
g6
F24.473141431808472
sg7
I546
sa(dp775
g6
F24.504386186599731
sg7
I0
sa(dp776
g6
F24.535640954971313
sg7
I0
sa(dp777
g6
F24.571892023086548
sg7
I0
sa(dp778
g6
F24.614382028579712
sg7
I0
sa(dp779
g6
F24.651888608932495
sg7
I0
sa(dp780
g6
F24.678137540817261
sg7
I0
sa(dp781
g6
F24.715629100799561
sg7
I0
sa(dp782
g6
F24.753121614456177
sg7
I0
sa(dp783
g6
F24.784382581710815
sg7
I-43
sa(dp784
g6
F24.817360162734985
sg7
I0
sa(dp785
g6
F24.852977514266968
sg7
I0
sa(dp786
g6
F24.889982461929321
sg7
I0
sa(dp787
g6
F24.921866655349731
sg7
I0
sa(dp788
g6
F24.952701568603516
sg7
I0
sa(dp789
g6
F24.985162496566772
sg7
I0
sa(dp790
g6
F25.023144483566284
sg7
I0
sa(dp791
g6
F25.054385423660278
sg7
I0
sa(dp792
g6
F25.080633401870728
sg7
I0
sa(dp793
g6
F25.111884355545044
sg7
I0
sa(dp794
g6
F25.148129224777222
sg7
I0
sa(dp795
g6
F25.184356927871704
sg7
I0
sa(dp796
g6
F25.215615510940552
sg7
I0
sa(dp797
g6
F25.246844053268433
sg7
I0
sa(dp798
g6
F25.278682470321655
sg7
I0
sa(dp799
g6
F25.310620069503784
sg7
I0
sa(dp800
g6
F25.345018625259399
sg7
I0
sa(dp801
g6
F25.383726596832275
sg7
I0
sa(dp802
g6
F25.422473669052124
sg7
I0
sa(dp803
g6
F25.456935167312622
sg7
I0
sa(dp804
g6
F25.488264560699463
sg7
I0
sa(dp805
g6
F25.524422407150269
sg7
I0
sa(dp806
g6
F25.560610055923462
sg7
I0
sa(dp807
g6
F25.591881513595581
sg7
I0
sa(dp808
g6
F25.623192071914673
sg7
I0
sa(dp809
g6
F25.654503583908081
sg7
I0
sa(dp810
g6
F25.685773134231567
sg7
I0
sa(dp811
g6
F25.717022180557251
sg7
I0
sa(dp812
g6
F25.748193502426147
sg7
I0
sa(dp813
g6
F25.779409646987915
sg7
I0
sa(dp814
g6
F25.810737133026123
sg7
I0
sa(dp815
g6
F25.841984987258911
sg7
I0
sa(dp816
g6
F25.87321925163269
sg7
I0
sa(dp817
g6
F25.904500722885132
sg7
I0
sa(dp818
g6
F25.938270092010498
sg7
I0
sa(dp819
g6
F25.978285074234009
sg7
I0
sa(dp820
g6
F26.015786409378052
sg7
I0
sa(dp821
g6
F26.047019481658936
sg7
I-37
sa(dp822
g6
F26.078249216079712
sg7
I0
sa(dp823
g6
F26.109488725662231
sg7
I0
sa(dp824
g6
F26.140752553939819
sg7
I0
sa(dp825
g6
F26.172010660171509
sg7
I288
sa(dp826
g6
F26.203251123428345
sg7
I0
sa(dp827
g6
F26.236511468887329
sg7
I0
sa(dp828
g6
F26.272777557373047
sg7
I0
sa(dp829
g6
F26.307025671005249
sg7
I631
sa(dp830
g6
F26.338253498077393
sg7
I0
sa(dp831
g6
F26.367633104324341
sg7
I0
sa(dp832
g6
F26.402008056640625
sg7
I0
sa(dp833
g6
F26.433217525482178
sg7
I448
sa(dp834
g6
F26.459469556808472
sg7
I0
sa(dp835
g6
F26.490756511688232
sg7
I0
sa(dp836
g6
F26.522018671035767
sg7
I0
sa(dp837
g6
F26.549488067626953
sg7
I0
sa(dp838
g6
F26.582414388656616
sg7
I0
sa(dp839
g6
F26.618691682815552
sg7
I0
sa(dp840
g6
F26.654485464096069
sg7
I0
sa(dp841
g6
F26.68574595451355
sg7
I-120
sa(dp842
g6
F26.716979026794434
sg7
I0
sa(dp843
g6
F26.748216390609741
sg7
I0
sa(dp844
g6
F26.777611494064331
sg7
I0
sa(dp845
g6
F26.811988115310669
sg7
I0
sa(dp846
g6
F26.843234062194824
sg7
I0
sa(dp847
g6
F26.873828649520874
sg7
I0
sa(dp848
g6
F26.909405469894409
sg7
I0
sa(dp849
g6
F26.945653438568115
sg7
I0
sa(dp850
g6
F26.981946229934692
sg7
I0
sa(dp851
g6
F27.018224477767944
sg7
I0
sa(dp852
g6
F27.049486398696899
sg7
I-135
sa(dp853
g6
F27.07950234413147
sg7
I0
sa(dp854
g6
F27.10939621925354
sg7
I0
sa(dp855
g6
F27.140639543533325
sg7
I0
sa(dp856
g6
F27.171993017196655
sg7
I0
sa(dp857
g6
F27.203242540359497
sg7
I0
sa(dp858
g6
F27.237622022628784
sg7
I0
sa(dp859
g6
F27.271996736526489
sg7
I0
sa(dp860
g6
F27.308240652084351
sg7
I0
sa(dp861
g6
F27.339489459991455
sg7
I0
sa(dp862
g6
F27.370707035064697
sg7
I0
sa(dp863
g6
F27.401936054229736
sg7
I0
sa(dp864
g6
F27.433647871017456
sg7
I265
sa(dp865
g6
F27.464918851852417
sg7
I0
sa(dp866
g6
F27.493866205215454
sg7
I179
sa(dp867
g6
F27.528239488601685
sg7
I0
sa(dp868
g6
F27.55949854850769
sg7
I0
sa(dp869
g6
F27.596987962722778
sg7
I0
sa(dp870
g6
F27.634487867355347
sg7
I0
sa(dp871
g6
F27.660746574401855
sg7
I0
sa(dp872
g6
F27.691994905471802
sg7
I0
sa(dp873
g6
F27.723237037658691
sg7
I0
sa(dp874
g6
F27.754476547241211
sg7
I0
sa(dp875
g6
F27.785704851150513
sg7
I0
sa(dp876
g6
F27.816980600357056
sg7
I0
sa(dp877
g6
F27.848192930221558
sg7
I0
sa(dp878
g6
F27.879432439804077
sg7
I0
sa(dp879
g6
F27.910698652267456
sg7
I0
sa(dp880
g6
F27.941942453384399
sg7
I454
sa(dp881
g6
F27.97321343421936
sg7
I0
sa(dp882
g6
F28.004492998123169
sg7
I0
sa(dp883
g6
F28.035740613937378
sg7
I0
sa(dp884
g6
F28.066992998123169
sg7
I0
sa(dp885
g6
F28.098229169845581
sg7
I638
sa(dp886
g6
F28.129422903060913
sg7
I0
sa(dp887
g6
F28.160732507705688
sg7
I0
sa(dp888
g6
F28.197649002075195
sg7
I0
sa(dp889
g6
F28.234474897384644
sg7
I0
sa(dp890
g6
F28.265762567520142
sg7
I0
sa(dp891
g6
F28.312003374099731
sg7
I-30
sa(dp892
g6
F28.353236436843872
sg7
I0
sa(dp893
g6
F28.379487037658691
sg7
I0
sa(dp894
g6
F28.410732507705688
sg7
I0
sa(dp895
g6
F28.441993474960327
sg7
I0
sa(dp896
g6
F28.473249673843384
sg7
I0
sa(dp897
g6
F28.50449013710022
sg7
I0
sa(dp898
g6
F28.535753488540649
sg7
I-1128
sa(dp899
g6
F28.566976547241211
sg7
I0
sa(dp900
g6
F28.598206520080566
sg7
I0
sa(dp901
g6
F28.629485845565796
sg7
I0
sa(dp902
g6
F28.660757064819336
sg7
I0
sa(dp903
g6
F28.692013025283813
sg7
I0
sa(dp904
g6
F28.722627878189087
sg7
I0
sa(dp905
g6
F28.756383180618286
sg7
I0
sa(dp906
g6
F28.785756826400757
sg7
I0
sa(dp907
g6
F28.813911199569702
sg7
I0
sa(dp908
g6
F28.844506978988647
sg7
I0
sa(dp909
g6
F28.875722646713257
sg7
I0
sa(dp910
g6
F28.909420251846313
sg7
I0
sa(dp911
g6
F28.941109895706177
sg7
I0
sa(dp912
g6
F28.972423553466797
sg7
I0
sa(dp913
g6
F29.003226518630981
sg7
I105
sa(dp914
g6
F29.031908988952637
sg7
I0
sa(dp915
g6
F29.065640449523926
sg7
I0
sa(dp916
g6
F29.096944093704224
sg7
I0
sa(dp917
g6
F29.126984119415283
sg7
I0
sa(dp918
g6
F29.161958932876587
sg7
I0
sa(dp919
g6
F29.196344614028931
sg7
I0
sa(dp920
g6
F29.228872060775757
sg7
I0
sa(dp921
g6
F29.263232469558716
sg7
I0
sa(dp922
g6
F29.293196439743042
sg7
I0
sa(dp923
g6
F29.323196172714233
sg7
I0
sa(dp924
g6
F29.356981992721558
sg7
I0
sa(dp925
g6
F29.388254642486572
sg7
I0
sa(dp926
g6
F29.416998147964478
sg7
I0
sa(dp927
g6
F29.448235511779785
sg7
I0
sa(dp928
g6
F29.479481935501099
sg7
I-1161
sa(dp929
g6
F29.510234117507935
sg7
I0
sa(dp930
g6
F29.545830011367798
sg7
I286
sa(dp931
g6
F29.581942081451416
sg7
I0
sa(dp932
g6
F29.61324143409729
sg7
I0
sa(dp933
g6
F29.644494533538818
sg7
I0
sa(dp934
g6
F29.675748109817505
sg7
I0
sa(dp935
g6
F29.707001924514771
sg7
I0
sa(dp936
g6
F29.738234519958496
sg7
I0
sa(dp937
g6
F29.76947808265686
sg7
I0
sa(dp938
g6
F29.800693511962891
sg7
I0
sa(dp939
g6
F29.839443922042847
sg7
I619
sa(dp940
g6
F29.878237009048462
sg7
I0
sa(dp941
g6
F29.904491662979126
sg7
I0
sa(dp942
g6
F29.935770034790039
sg7
I537
sa(dp943
g6
F29.967023611068726
sg7
I0
sa(dp944
g6
F29.998224496841431
sg7
I0
sa(dp945
g6
F30.030733585357666
sg7
I0
sa(dp946
g6
F30.058239698410034
sg7
I0
sa(dp947
g6
F30.088860034942627
sg7
I0
sa(dp948
g6
F30.122587919235229
sg7
I0
sa(dp949
g6
F30.151363611221313
sg7
I0
sa(dp950
g6
F30.181988477706909
sg7
I0
sa(dp951
g6
F30.213231801986694
sg7
I0
sa(dp952
g6
F30.244479417800903
sg7
I0
sa(dp953
g6
F30.275741338729858
sg7
I0
sa(dp954
g6
F30.306975126266479
sg7
I0
sa(dp955
g6
F30.338210105895996
sg7
I0
sa(dp956
g6
F30.369470119476318
sg7
I0
sa(dp957
g6
F30.406986474990845
sg7
I0
sa(dp958
g6
F30.441978454589844
sg7
I0
sa(dp959
g6
F30.470705509185791
sg7
I278
sa(dp960
g6
F30.501925706863403
sg7
I554
sa(dp961
g6
F30.533200979232788
sg7
I193
sa(dp962
g6
F30.564456701278687
sg7
I0
sa(dp963
g6
F30.595731019973755
sg7
I299
sa(dp964
g6
F30.627078056335449
sg7
I0
sa(dp965
g6
F30.658309698104858
sg7
I0
sa(dp966
g6
F30.689480543136597
sg7
I-78
sa(dp967
g6
F30.720705032348633
sg7
I0
sa(dp968
g6
F30.748215913772583
sg7
I739
sa(dp969
g6
F30.78072190284729
sg7
I0
sa(dp970
g6
F30.8120276927948
sg7
I0
sa(dp971
g6
F30.843294858932495
sg7
I0
sa(dp972
g6
F30.874476194381714
sg7
I0
sa(dp973
g6
F30.900695085525513
sg7
I63
sa(dp974
g6
F30.931995630264282
sg7
I0
sa(dp975
g6
F30.965754985809326
sg7
I0
sa(dp976
g6
F30.994417428970337
sg7
I0
sa(dp977
g6
F31.02564549446106
sg7
I831
sa(dp978
g6
F31.065674543380737
sg7
I0
sa(dp979
g6
F31.105708837509155
sg7
I0
sa(dp980
g6
F31.13694167137146
sg7
I0
sa(dp981
g6
F31.168167114257812
sg7
I548
sa(dp982
g6
F31.199445486068726
sg7
I-545
sa(dp983
g6
F31.230724096298218
sg7
I0
sa(dp984
g6
F31.262044429779053
sg7
I-836
sa(dp985
g6
F31.293268442153931
sg7
I607
sa(dp986
g6
F31.324465990066528
sg7
I0
sa(dp987
g6
F31.357786417007446
sg7
I0
sa(dp988
g6
F31.395880460739136
sg7
I0
sa(dp989
g6
F31.427006006240845
sg7
I0
sa(dp990
g6
F31.46269702911377
sg7
I275
sa(dp991
g6
F31.498228073120117
sg7
I0
sa(dp992
g6
F31.526257991790771
sg7
I0
sa(dp993
g6
F31.56572151184082
sg7
I0
sa(dp994
g6
F31.605775117874146
sg7
I0
sa(dp995
g6
F31.6457679271698
sg7
I0
sa(dp996
g6
F31.68700909614563
sg7
I0
sa(dp997
g6
F31.716988563537598
sg7
I0
sa(dp998
g6
F31.748255491256714
sg7
I0
sa(dp999
g6
F31.779437065124512
sg7
I0
sa(dp1000
g6
F31.810677528381348
sg7
I0
sa(dp1001
g6
F31.846971988677979
sg7
I0
sa(dp1002
g6
F31.88325309753418
sg7
I0
sa(dp1003
g6
F31.914438486099243
sg7
I0
sa(dp1004
g6
F31.94069504737854
sg7
I0
sa(dp1005
g6
F31.967012166976929
sg7
I0
sa(dp1006
g6
F31.998254060745239
sg7
I0
sa(dp1007
g6
F32.029471635818481
sg7
I0
sa(dp1008
g6
F32.058915376663208
sg7
I0
sa(dp1009
g6
F32.090727090835571
sg7
I0
sa(dp1010
g6
F32.119380950927734
sg7
I0
sa(dp1011
g6
F32.145621538162231
sg7
I0
sa(dp1012
g6
F32.171955108642578
sg7
I0
sa(dp1013
g6
F32.200766563415527
sg7
I0
sa(dp1014
g6
F32.234455585479736
sg7
I0
sa(dp1015
g6
F32.270718574523926
sg7
I0
sa(dp1016
g6
F32.307025671005249
sg7
I0
sa(dp1017
g6
F32.338265180587769
sg7
I0
sa(dp1018
g6
F32.369464635848999
sg7
I0
sa(dp1019
g6
F32.400676012039185
sg7
I0
sa(dp1020
g6
F32.429486989974976
sg7
I0
sa(dp1021
g6
F32.463266611099243
sg7
I0
sa(dp1022
g6
F32.494452714920044
sg7
I0
sa(dp1023
g6
F32.525671005249023
sg7
I0
sa(dp1024
g6
F32.556977987289429
sg7
I0
sa(dp1025
g6
F32.588256120681763
sg7
I262
sa(dp1026
g6
F32.619452476501465
sg7
I0
sa(dp1027
g6
F32.650060892105103
sg7
I0
sa(dp1028
g6
F32.680697679519653
sg7
I0
sa(dp1029
g6
F32.711259126663208
sg7
I0
sa(dp1030
g6
F32.741929531097412
sg7
I0
sa(dp1031
g6
F32.773239850997925
sg7
I0
sa(dp1032
g6
F32.806894063949585
sg7
I0
sa(dp1033
g6
F32.835652589797974
sg7
I0
sa(dp1034
g6
F32.866965532302856
sg7
I744
sa(dp1035
g6
F32.89818263053894
sg7
I0
sa(dp1036
g6
F32.930687665939331
sg7
I0
sa(dp1037
g6
F32.96572470664978
sg7
I0
sa(dp1038
g6
F33.007551431655884
sg7
I0
sa(dp1039
g6
F33.046998023986816
sg7
I0
sa(dp1040
g6
F33.078223466873169
sg7
I0
sa(dp1041
g6
F33.114413022994995
sg7
I0
sa(dp1042
g6
F33.145673990249634
sg7
I550
sa(dp1043
g6
F33.182029485702515
sg7
I0
sa(dp1044
g6
F33.218261003494263
sg7
I0
sa(dp1045
g6
F33.24946141242981
sg7
I0
sa(dp1046
g6
F33.280795812606812
sg7
I0
sa(dp1047
g6
F33.308293581008911
sg7
I0
sa(dp1048
g6
F33.340805053710938
sg7
I0
sa(dp1049
g6
F33.372063398361206
sg7
I544
sa(dp1050
g6
F33.403247594833374
sg7
I0
sa(dp1051
g6
F33.434487104415894
sg7
I0
sa(dp1052
g6
F33.465807437896729
sg7
I0
sa(dp1053
g6
F33.502070665359497
sg7
I0
sa(dp1054
g6
F33.536418437957764
sg7
I0
sa(dp1055
g6
F33.570791482925415
sg7
I0
sa(dp1056
g6
F33.602059602737427
sg7
I0
sa(dp1057
g6
F33.632018327713013
sg7
I0
sa(dp1058
g6
F33.662019014358521
sg7
I0
sa(dp1059
g6
F33.693303108215332
sg7
I0
sa(dp1060
g6
F33.730148553848267
sg7
I0
sa(dp1061
g6
F33.766999483108521
sg7
I640
sa(dp1062
g6
F33.798280954360962
sg7
I0
sa(dp1063
g6
F33.829521894454956
sg7
I0
sa(dp1064
g6
F33.865782976150513
sg7
I0
sa(dp1065
g6
F33.902053594589233
sg7
I0
sa(dp1066
g6
F33.933912038803101
sg7
I0
sa(dp1067
g6
F33.965814590454102
sg7
I0
sa(dp1068
g6
F34.000200510025024
sg7
I0
sa(dp1069
g6
F34.029520511627197
sg7
I0
sa(dp1070
g6
F34.060785531997681
sg7
I448
sa(dp1071
g6
F34.092055559158325
sg7
I0
sa(dp1072
g6
F34.12372350692749
sg7
I0
sa(dp1073
g6
F34.154973983764648
sg7
I0
sa(dp1074
g6
F34.185815572738647
sg7
I0
sa(dp1075
g6
F34.217085123062134
sg7
I0
sa(dp1076
g6
F34.247035980224609
sg7
I0
sa(dp1077
g6
F34.277014493942261
sg7
I-562
sa(dp1078
g6
F34.309551000595093
sg7
I0
sa(dp1079
g6
F34.342059373855591
sg7
I0
sa(dp1080
g6
F34.373301982879639
sg7
I0
sa(dp1081
g6
F34.404560089111328
sg7
I0
sa(dp1082
g6
F34.435794591903687
sg7
I0
sa(dp1083
g6
F34.467011690139771
sg7
I0
sa(dp1084
g6
F34.498254537582397
sg7
I0
sa(dp1085
g6
F34.529525518417358
sg7
I0
sa(dp1086
g6
F34.560149431228638
sg7
I810
sa(dp1087
g6
F34.595785140991211
sg7
I0
sa(dp1088
g6
F34.632042169570923
sg7
I0
sa(dp1089
g6
F34.663305044174194
sg7
I0
sa(dp1090
g6
F34.694554567337036
sg7
I178
sa(dp1091
g6
F34.725798845291138
sg7
I0
sa(dp1092
g6
F34.757050514221191
sg7
I0
sa(dp1093
g6
F34.788290977478027
sg7
I0
sa(dp1094
g6
F34.819533109664917
sg7
I0
sa(dp1095
g6
F34.850792169570923
sg7
I0
sa(dp1096
g6
F34.885786533355713
sg7
I0
sa(dp1097
g6
F34.92579197883606
sg7
I0
sa(dp1098
g6
F34.960172891616821
sg7
I0
sa(dp1099
g6
F34.994535446166992
sg7
I0
sa(dp1100
g6
F35.025797605514526
sg7
I0
sa(dp1101
g6
F35.052052021026611
sg7
I0
sa(dp1102
g6
F35.083278894424438
sg7
I0
sa(dp1103
g6
F35.114531993865967
sg7
I0
sa(dp1104
g6
F35.145793676376343
sg7
I0
sa(dp1105
g6
F35.177007913589478
sg7
I0
sa(dp1106
g6
F35.208223104476929
sg7
I804
sa(dp1107
g6
F35.244514942169189
sg7
I0
sa(dp1108
g6
F35.278294086456299
sg7
I0
sa(dp1109
g6
F35.312053918838501
sg7
I0
sa(dp1110
g6
F35.343300104141235
sg7
I0
sa(dp1111
g6
F35.373285055160522
sg7
I0
sa(dp1112
g6
F35.403296232223511
sg7
I0
sa(dp1113
g6
F35.432687044143677
sg7
I0
sa(dp1114
g6
F35.467058897018433
sg7
I0
sa(dp1115
g6
F35.498269081115723
sg7
I0
sa(dp1116
g6
F35.529515027999878
sg7
I0
sa(dp1117
g6
F35.56080150604248
sg7
I0
sa(dp1118
g6
F35.592065572738647
sg7
I0
sa(dp1119
g6
F35.623303651809692
sg7
I549
sa(dp1120
g6
F35.654559850692749
sg7
I0
sa(dp1121
g6
F35.693308115005493
sg7
I450
sa(dp1122
g6
F35.727058172225952
sg7
I26
sa(dp1123
g6
F35.758710622787476
sg7
I0
sa(dp1124
g6
F35.789960145950317
sg7
I352
sa(dp1125
g6
F35.82079815864563
sg7
I0
sa(dp1126
g6
F35.852038145065308
sg7
I0
sa(dp1127
g6
F35.883230447769165
sg7
I0
sa(dp1128
g6
F35.927641153335571
sg7
I0
sa(dp1129
g6
F35.967037916183472
sg7
I0
sa(dp1130
g6
F35.997645139694214
sg7
I0
sa(dp1131
g6
F36.028287172317505
sg7
I0
sa(dp1132
g6
F36.054540395736694
sg7
I0
sa(dp1133
g6
F36.080828905105591
sg7
I0
sa(dp1134
g6
F36.112109422683716
sg7
I0
sa(dp1135
g6
F36.148293733596802
sg7
I0
sa(dp1136
g6
F36.184506177902222
sg7
I0
sa(dp1137
g6
F36.215778112411499
sg7
I0
sa(dp1138
g6
F36.24703574180603
sg7
I0
sa(dp1139
g6
F36.278262615203857
sg7
I0
sa(dp1140
g6
F36.309519052505493
sg7
I0
sa(dp1141
g6
F36.340803384780884
sg7
I-112
sa(dp1142
g6
F36.372052431106567
sg7
I0
sa(dp1143
g6
F36.403291940689087
sg7
I0
sa(dp1144
g6
F36.434538602828979
sg7
I0
sa(dp1145
g6
F36.465804100036621
sg7
I0
sa(dp1146
g6
F36.495805501937866
sg7
I0
sa(dp1147
g6
F36.525768041610718
sg7
I0
sa(dp1148
g6
F36.552019596099854
sg7
I0
sa(dp1149
g6
F36.578282594680786
sg7
I0
sa(dp1150
g6
F36.607664585113525
sg7
I0
sa(dp1151
g6
F36.642049074172974
sg7
I0
sa(dp1152
g6
F36.673291444778442
sg7
I0
sa(dp1153
g6
F36.704542398452759
sg7
I0
sa(dp1154
g6
F36.735801458358765
sg7
I0
sa(dp1155
g6
F36.767021894454956
sg7
I0
sa(dp1156
g6
F36.800748109817505
sg7
I0
sa(dp1157
g6
F36.829511880874634
sg7
I0
sa(dp1158
g6
F36.868894338607788
sg7
I0
sa(dp1159
g6
F36.908282995223999
sg7
I0
sa(dp1160
g6
F36.93453049659729
sg7
I0
sa(dp1161
g6
F36.965782403945923
sg7
I288
sa(dp1162
g6
F36.997050046920776
sg7
I0
sa(dp1163
g6
F37.028263568878174
sg7
I0
sa(dp1164
g6
F37.059466600418091
sg7
I0
sa(dp1165
g6
F37.095749616622925
sg7
I0
sa(dp1166
g6
F37.132015466690063
sg7
I0
sa(dp1167
g6
F37.163258075714111
sg7
I0
sa(dp1168
g6
F37.200823068618774
sg7
I0
sa(dp1169
g6
F37.237691164016724
sg7
I0
sa(dp1170
g6
F37.268262624740601
sg7
I0
sa(dp1171
g6
F37.299525022506714
sg7
I0
sa(dp1172
g6
F37.330819606781006
sg7
I0
sa(dp1173
g6
F37.3620445728302
sg7
I0
sa(dp1174
g6
F37.393218040466309
sg7
I0
sa(dp1175
g6
F37.424458980560303
sg7
I0
sa(dp1176
g6
F37.455762147903442
sg7
I0
sa(dp1177
g6
F37.48704195022583
sg7
I0
sa(dp1178
g6
F37.518268346786499
sg7
I0
sa(dp1179
g6
F37.549526929855347
sg7
I0
sa(dp1180
g6
F37.585792541503906
sg7
I0
sa(dp1181
g6
F37.619539499282837
sg7
I0
sa(dp1182
g6
F37.651400804519653
sg7
I0
sa(dp1183
g6
F37.685794591903687
sg7
I0
sa(dp1184
g6
F37.719537496566772
sg7
I0
sa(dp1185
g6
F37.748267412185669
sg7
I0
sa(dp1186
g6
F37.78017258644104
sg7
I0
sa(dp1187
g6
F37.815176486968994
sg7
I0
sa(dp1188
g6
F37.849523544311523
sg7
I0
sa(dp1189
g6
F37.880799055099487
sg7
I0
sa(dp1190
g6
F37.910169839859009
sg7
I0
sa(dp1191
g6
F37.941393136978149
sg7
I0
sa(dp1192
g6
F37.970773935317993
sg7
I0
sa(dp1193
g6
F38.006986379623413
sg7
I0
sa(dp1194
g6
F38.041975021362305
sg7
I0
sa(dp1195
g6
F38.073286533355713
sg7
I0
sa(dp1196
g6
F38.104529142379761
sg7
I0
sa(dp1197
g6
F38.135786533355713
sg7
I-266
sa(dp1198
g6
F38.167051553726196
sg7
I0
sa(dp1199
g6
F38.198259592056274
sg7
I0
sa(dp1200
g6
F38.229493379592896
sg7
I0
sa(dp1201
g6
F38.260785818099976
sg7
I0
sa(dp1202
g6
F38.297024011611938
sg7
I0
sa(dp1203
g6
F38.333256483078003
sg7
I0
sa(dp1204
g6
F38.364516496658325
sg7
I0
sa(dp1205
g6
F38.395748615264893
sg7
I0
sa(dp1206
g6
F38.428258657455444
sg7
I0
sa(dp1207
g6
F38.455797433853149
sg7
I0
sa(dp1208
g6
F38.487054109573364
sg7
I0
sa(dp1209
g6
F38.51824164390564
sg7
I0
sa(dp1210
g6
F38.54949164390564
sg7
I0
sa(dp1211
g6
F38.58078408241272
sg7
I0
sa(dp1212
g6
F38.611985921859741
sg7
I0
sa(dp1213
g6
F38.643232583999634
sg7
I0
sa(dp1214
g6
F38.674519062042236
sg7
I0
sa(dp1215
g6
F38.7057785987854
sg7
I0
sa(dp1216
g6
F38.737035036087036
sg7
I0
sa(dp1217
g6
F38.777643442153931
sg7
I0
sa(dp1218
g6
F38.817038536071777
sg7
I0
sa(dp1219
g6
F38.846992969512939
sg7
I0
sa(dp1220
g6
F38.873227834701538
sg7
I0
sa(dp1221
g6
F38.904513120651245
sg7
I0
sa(dp1222
g6
F38.940783739089966
sg7
I0
sa(dp1223
g6
F38.972033977508545
sg7
I0
sa(dp1224
g6
F38.998268365859985
sg7
I0
sa(dp1225
g6
F39.034069538116455
sg7
I0
sa(dp1226
g6
F39.069693088531494
sg7
I0
sa(dp1227
g6
F39.095782995223999
sg7
I0
sa(dp1228
g6
F39.122033834457397
sg7
I0
sa(dp1229
g6
F39.15327262878418
sg7
I0
sa(dp1230
g6
F39.189522504806519
sg7
I0
sa(dp1231
g6
F39.225802183151245
sg7
I0
sa(dp1232
g6
F39.257043123245239
sg7
I0
sa(dp1233
g6
F39.288233041763306
sg7
I0
sa(dp1234
g6
F39.321982145309448
sg7
I0
sa(dp1235
g6
F39.350706338882446
sg7
I0
sa(dp1236
g6
F39.381958961486816
sg7
I0
sa(dp1237
g6
F39.413264989852905
sg7
I0
sa(dp1238
g6
F39.444502115249634
sg7
I0
sa(dp1239
g6
F39.47576642036438
sg7
I0
sa(dp1240
g6
F39.507024526596069
sg7
I0
sa(dp1241
g6
F39.538259744644165
sg7
I0
sa(dp1242
g6
F39.569506406784058
sg7
I0
sa(dp1243
g6
F39.600741147994995
sg7
I273
sa(dp1244
g6
F39.631994962692261
sg7
I424
sa(dp1245
g6
F39.663259506225586
sg7
I0
sa(dp1246
g6
F39.694506406784058
sg7
I0
sa(dp1247
g6
F39.738254308700562
sg7
I0
sa(dp1248
g6
F39.777506113052368
sg7
I0
sa(dp1249
g6
F39.808739900588989
sg7
I0
sa(dp1250
g6
F39.839503049850464
sg7
I627
sa(dp1251
g6
F39.87078857421875
sg7
I0
sa(dp1252
g6
F39.900109052658081
sg7
I0
sa(dp1253
g6
F39.931968927383423
sg7
I0
sa(dp1254
g6
F39.970778703689575
sg7
I0
sa(dp1255
g6
F40.002012968063354
sg7
I0
sa(dp1256
g6
F40.028221607208252
sg7
I0
sa(dp1257
g6
F40.064495086669922
sg7
I0
sa(dp1258
g6
F40.100720167160034
sg7
I0
sa(dp1259
g6
F40.131991624832153
sg7
I0
sa(dp1260
g6
F40.163269519805908
sg7
I0
sa(dp1261
g6
F40.194506406784058
sg7
I0
sa(dp1262
g6
F40.225774049758911
sg7
I391
sa(dp1263
g6
F40.257027387619019
sg7
I545
sa(dp1264
g6
F40.288248062133789
sg7
I0
sa(dp1265
g6
F40.319060087203979
sg7
I0
sa(dp1266
g6
F40.354695081710815
sg7
I0
sa(dp1267
g6
F40.390767335891724
sg7
I0
sa(dp1268
g6
F40.422007322311401
sg7
I0
sa(dp1269
g6
F40.450117826461792
sg7
I0
sa(dp1270
g6
F40.483249425888062
sg7
I0
sa(dp1271
g6
F40.514498472213745
sg7
I0
sa(dp1272
g6
F40.545689582824707
sg7
I0
sa(dp1273
g6
F40.578171014785767
sg7
I0
sa(dp1274
g6
F40.605755090713501
sg7
I0
sa(dp1275
g6
F40.637032032012939
sg7
I0
sa(dp1276
g6
F40.668253183364868
sg7
I0
sa(dp1277
g6
F40.697622060775757
sg7
I0
sa(dp1278
g6
F40.731991529464722
sg7
I0
sa(dp1279
g6
F40.763256072998047
sg7
I0
sa(dp1280
g6
F40.794508695602417
sg7
I0
sa(dp1281
g6
F40.82575249671936
sg7
I0
sa(dp1282
g6
F40.857069730758667
sg7
I0
sa(dp1283
g6
F40.888317108154297
sg7
I0
sa(dp1284
g6
F40.920003652572632
sg7
I0
sa(dp1285
g6
F40.951289892196655
sg7
I0
sa(dp1286
g6
F40.987039566040039
sg7
I0
sa(dp1287
g6
F41.026366472244263
sg7
I0
sa(dp1288
g6
F41.055749177932739
sg7
I0
sa(dp1289
g6
F41.087005376815796
sg7
I0
sa(dp1290
g6
F41.1182701587677
sg7
I0
sa(dp1291
g6
F41.149585008621216
sg7
I0
sa(dp1292
g6
F41.180820226669312
sg7
I0
sa(dp1293
g6
F41.212011575698853
sg7
I0
sa(dp1294
g6
F41.243305444717407
sg7
I0
sa(dp1295
g6
F41.27459454536438
sg7
I0
sa(dp1296
g6
F41.305849075317383
sg7
I0
sa(dp1297
g6
F41.337086915969849
sg7
I546
sa(dp1298
g6
F41.368337392807007
sg7
I0
sa(dp1299
g6
F41.399606943130493
sg7
I0
sa(dp1300
g6
F41.430853605270386
sg7
I-9
sa(dp1301
g6
F41.462096929550171
sg7
I0
sa(dp1302
g6
F41.493354558944702
sg7
I0
sa(dp1303
g6
F41.522790193557739
sg7
I0
sa(dp1304
g6
F41.557163000106812
sg7
I0
sa(dp1305
g6
F41.595992088317871
sg7
I0
sa(dp1306
g6
F41.629750490188599
sg7
I0
sa(dp1307
g6
F41.658979177474976
sg7
I0
sa(dp1308
g6
F41.688333988189697
sg7
I0
sa(dp1309
g6
F41.719579935073853
sg7
I832
sa(dp1310
g6
F41.750829458236694
sg7
I0
sa(dp1311
g6
F41.782061338424683
sg7
I-441
sa(dp1312
g6
F41.813434839248657
sg7
I0
sa(dp1313
g6
F41.84471583366394
sg7
I0
sa(dp1314
g6
F41.877093076705933
sg7
I0
sa(dp1315
g6
F41.903955459594727
sg7
I0
sa(dp1316
g6
F41.937076807022095
sg7
I0
sa(dp1317
g6
F41.969548940658569
sg7
I0
sa(dp1318
g6
F42.00325608253479
sg7
I0
sa(dp1319
g6
F42.037054061889648
sg7
I0
sa(dp1320
g6
F42.067069530487061
sg7
I0
sa(dp1321
g6
F42.103288412094116
sg7
I0
sa(dp1322
g6
F42.142702102661133
sg7
I0
sa(dp1323
g6
F42.182086706161499
sg7
I0
sa(dp1324
g6
F42.21271014213562
sg7
I0
sa(dp1325
g6
F42.243339538574219
sg7
I0
sa(dp1326
g6
F42.274593591690063
sg7
I0
sa(dp1327
g6
F42.305843591690063
sg7
I0
sa(dp1328
g6
F42.337083101272583
sg7
I0
sa(dp1329
g6
F42.365180969238281
sg7
I0
sa(dp1330
g6
F42.398316621780396
sg7
I0
sa(dp1331
g6
F42.429582595825195
sg7
I428
sa(dp1332
g6
F42.460208177566528
sg7
I0
sa(dp1333
g6
F42.490854024887085
sg7
I0
sa(dp1334
g6
F42.520848989486694
sg7
I0
sa(dp1335
g6
F42.550827980041504
sg7
I0
sa(dp1336
g6
F42.582080125808716
sg7
I0
sa(dp1337
g6
F42.626463174819946
sg7
I0
sa(dp1338
g6
F42.665850400924683
sg7
I0
sa(dp1339
g6
F42.701498985290527
sg7
I0
sa(dp1340
g6
F42.739614725112915
sg7
I0
sa(dp1341
g6
F42.768356084823608
sg7
I0
sa(dp1342
g6
F42.799560070037842
sg7
I0
sa(dp1343
g6
F42.830799102783203
sg7
I0
sa(dp1344
g6
F42.862102031707764
sg7
I0
sa(dp1345
g6
F42.893985986709595
sg7
I0
sa(dp1346
g6
F42.92586350440979
sg7
I0
sa(dp1347
g6
F42.957070589065552
sg7
I0
sa(dp1348
g6
F42.983258962631226
sg7
I0
sa(dp1349
g6
F43.014559984207153
sg7
I0
sa(dp1350
g6
F43.048367977142334
sg7
I0
sa(dp1351
g6
F43.077083110809326
sg7
I0
sa(dp1352
g6
F43.103311538696289
sg7
I541
sa(dp1353
g6
F43.134572505950928
sg7
I0
sa(dp1354
g6
F43.165827512741089
sg7
I0
sa(dp1355
g6
F43.203402042388916
sg7
I0
sa(dp1356
g6
F43.24149751663208
sg7
I0
sa(dp1357
g6
F43.268304109573364
sg7
I0
sa(dp1358
g6
F43.299592018127441
sg7
I0
sa(dp1359
g6
F43.33084511756897
sg7
I0
sa(dp1360
g6
F43.360820531845093
sg7
I0
sa(dp1361
g6
F43.390806913375854
sg7
I0
sa(dp1362
g6
F43.417104005813599
sg7
I0
sa(dp1363
g6
F43.443362951278687
sg7
I0
sa(dp1364
g6
F43.47458815574646
sg7
I0
sa(dp1365
g6
F43.505843877792358
sg7
I0
sa(dp1366
g6
F43.537111520767212
sg7
I0
sa(dp1367
g6
F43.578980684280396
sg7
I0
sa(dp1368
g6
F43.620841503143311
sg7
I0
sa(dp1369
g6
F43.652492046356201
sg7
I0
sa(dp1370
g6
F43.683727979660034
sg7
I0
sa(dp1371
g6
F43.714584112167358
sg7
I0
sa(dp1372
g6
F43.745836019515991
sg7
I0
sa(dp1373
g6
F43.778320550918579
sg7
I456
sa(dp1374
g6
F43.809640645980835
sg7
I0
sa(dp1375
g6
F43.85400652885437
sg7
I0
sa(dp1376
g6
F43.894582509994507
sg7
I0
sa(dp1377
g6
F43.920828580856323
sg7
I0
sa(dp1378
g6
F43.952082872390747
sg7
I0
sa(dp1379
g6
F43.983339548110962
sg7
I0
sa(dp1380
g6
F44.015007495880127
sg7
I0
sa(dp1381
g6
F44.046238660812378
sg7
I0
sa(dp1382
g6
F44.077049493789673
sg7
I0
sa(dp1383
g6
F44.108334541320801
sg7
I0
sa(dp1384
g6
F44.139591455459595
sg7
I0
sa(dp1385
g6
F44.180171728134155
sg7
I0
sa(dp1386
g6
F44.22081446647644
sg7
I279
sa(dp1387
g6
F44.252055406570435
sg7
I0
sa(dp1388
g6
F44.282043218612671
sg7
I0
sa(dp1389
g6
F44.312041997909546
sg7
I0
sa(dp1390
g6
F44.345791578292847
sg7
I0
sa(dp1391
g6
F44.384541511535645
sg7
I545
sa(dp1392
g6
F44.415794610977173
sg7
I0
sa(dp1393
g6
F44.447489976882935
sg7
I0
sa(dp1394
g6
F44.481245040893555
sg7
I0
sa(dp1395
g6
F44.509558916091919
sg7
I0
sa(dp1396
g6
F44.540834665298462
sg7
I0
sa(dp1397
g6
F44.585186243057251
sg7
I0
sa(dp1398
g6
F44.624551057815552
sg7
I0
sa(dp1399
g6
F44.650847196578979
sg7
I640
sa(dp1400
g6
F44.682085990905762
sg7
I0
sa(dp1401
g6
F44.713326692581177
sg7
I0
sa(dp1402
g6
F44.744590997695923
sg7
I0
sa(dp1403
g6
F44.777102708816528
sg7
I0
sa(dp1404
g6
F44.804589033126831
sg7
I0
sa(dp1405
g6
F44.830829381942749
sg7
I0
sa(dp1406
g6
F44.857085943222046
sg7
I0
sa(dp1407
g6
F44.894543409347534
sg7
I0
sa(dp1408
g6
F44.932036161422729
sg7
I0
sa(dp1409
g6
F44.958333015441895
sg7
I0
sa(dp1410
g6
F44.989593505859375
sg7
I0
sa(dp1411
g6
F45.020830392837524
sg7
I458
sa(dp1412
g6
F45.052083969116211
sg7
I0
sa(dp1413
g6
F45.083338022232056
sg7
I0
sa(dp1414
g6
F45.114569902420044
sg7
I0
sa(dp1415
g6
F45.14581036567688
sg7
I0
sa(dp1416
g6
F45.177057981491089
sg7
I0
sa(dp1417
g6
F45.210811853408813
sg7
I0
sa(dp1418
g6
F45.239563941955566
sg7
I0
sa(dp1419
g6
F45.270826578140259
sg7
I0
sa(dp1420
g6
F45.30083155632019
sg7
I0
sa(dp1421
g6
F45.330831527709961
sg7
I0
sa(dp1422
g6
F45.362051010131836
sg7
I0
sa(dp1423
g6
F45.393295526504517
sg7
I0
sa(dp1424
g6
F45.424566507339478
sg7
I0
sa(dp1425
g6
F45.455190896987915
sg7
I0
sa(dp1426
g6
F45.490826368331909
sg7
I0
sa(dp1427
g6
F45.525188684463501
sg7
I0
sa(dp1428
g6
F45.559561967849731
sg7
I0
sa(dp1429
g6
F45.590833425521851
sg7
I0
sa(dp1430
g6
F45.622090578079224
sg7
I0
sa(dp1431
g6
F45.653342485427856
sg7
I763
sa(dp1432
g6
F45.684576511383057
sg7
I0
sa(dp1433
g6
F45.715830564498901
sg7
I0
sa(dp1434
g6
F45.747064590454102
sg7
I0
sa(dp1435
g6
F45.778310060501099
sg7
I0
sa(dp1436
g6
F45.809575080871582
sg7
I0
sa(dp1437
g6
F45.845855474472046
sg7
I0
sa(dp1438
g6
F45.882113695144653
sg7
I0
sa(dp1439
g6
F45.913525342941284
sg7
I-430
sa(dp1440
g6
F45.939797163009644
sg7
I0
sa(dp1441
g6
F45.965835332870483
sg7
I0
sa(dp1442
g6
F45.997076034545898
sg7
I0
sa(dp1443
g6
F46.02768874168396
sg7
I0
sa(dp1444
g6
F46.058294534683228
sg7
I0
sa(dp1445
g6
F46.089554071426392
sg7
I0
sa(dp1446
g6
F46.12089204788208
sg7
I0
sa(dp1447
g6
F46.152135610580444
sg7
I0
sa(dp1448
g6
F46.183326959609985
sg7
I0
sa(dp1449
g6
F46.214566469192505
sg7
I0
sa(dp1450
g6
F46.245828866958618
sg7
I0
sa(dp1451
g6
F46.277083158493042
sg7
I0
sa(dp1452
g6
F46.308756589889526
sg7
I0
sa(dp1453
g6
F46.340011358261108
sg7
I0
sa(dp1454
g6
F46.37089204788208
sg7
I0
sa(dp1455
g6
F46.402137041091919
sg7
I-585
sa(dp1456
g6
F46.432071447372437
sg7
I0
sa(dp1457
g6
F46.465194463729858
sg7
I0
sa(dp1458
g6
F46.494559526443481
sg7
I0
sa(dp1459
g6
F46.525883913040161
sg7
I0
sa(dp1460
g6
F46.557127714157104
sg7
I0
sa(dp1461
g6
F46.58640456199646
sg7
I0
sa(dp1462
g6
F46.620852708816528
sg7
I0
sa(dp1463
g6
F46.652130365371704
sg7
I0
sa(dp1464
g6
F46.678317546844482
sg7
I0
sa(dp1465
g6
F46.704578638076782
sg7
I0
sa(dp1466
g6
F46.735174417495728
sg7
I0
sa(dp1467
g6
F46.766297101974487
sg7
I0
sa(dp1468
g6
F46.792578458786011
sg7
I0
sa(dp1469
g6
F46.821442842483521
sg7
I0
sa(dp1470
g6
F46.85586142539978
sg7
I366
sa(dp1471
g6
F46.887105703353882
sg7
I0
sa(dp1472
g6
F46.913308382034302
sg7
I0
sa(dp1473
g6
F46.939534425735474
sg7
I0
sa(dp1474
g6
F46.970854043960571
sg7
I0
sa(dp1475
g6
F47.002130031585693
sg7
I0
sa(dp1476
g6
F47.029625177383423
sg7
I0
sa(dp1477
g6
F47.057129144668579
sg7
I-263
sa(dp1478
g6
F47.088304042816162
sg7
I0
sa(dp1479
g6
F47.132044076919556
sg7
I0
sa(dp1480
g6
F47.170885562896729
sg7
I0
sa(dp1481
g6
F47.197144746780396
sg7
I0
sa(dp1482
g6
F47.229058980941772
sg7
I0
sa(dp1483
g6
F47.262743711471558
sg7
I304
sa(dp1484
g6
F47.290817022323608
sg7
I0
sa(dp1485
g6
F47.32213282585144
sg7
I0
sa(dp1486
g6
F47.353291034698486
sg7
I0
sa(dp1487
g6
F47.382704973220825
sg7
I0
sa(dp1488
g6
F47.417113065719604
sg7
I0
sa(dp1489
g6
F47.445895910263062
sg7
I0
sa(dp1490
g6
F47.469527959823608
sg7
I0
sa(dp1491
g6
F47.495836019515991
sg7
I376
sa(dp1492
g6
F47.527084589004517
sg7
I0
sa(dp1493
g6
F47.55823802947998
sg7
I0
sa(dp1494
g6
F47.589503049850464
sg7
I0
sa(dp1495
g6
F47.620830059051514
sg7
I0
sa(dp1496
g6
F47.652082681655884
sg7
I0
sa(dp1497
g6
F47.683257341384888
sg7
I75
sa(dp1498
g6
F47.712019205093384
sg7
I0
sa(dp1499
g6
F47.74581503868103
sg7
I0
sa(dp1500
g6
F47.7770836353302
sg7
I0
sa(dp1501
g6
F47.808305978775024
sg7
I0
sa(dp1502
g6
F47.83954644203186
sg7
I0
sa(dp1503
g6
F47.870871543884277
sg7
I0
sa(dp1504
g6
F47.902124166488647
sg7
I0
sa(dp1505
g6
F47.933268547058105
sg7
I0
sa(dp1506
g6
F47.963273525238037
sg7
I0
sa(dp1507
g6
F47.995991945266724
sg7
I0
sa(dp1508
g6
F48.034718036651611
sg7
I0
sa(dp1509
g6
F48.06584095954895
sg7
I0
sa(dp1510
g6
F48.097089529037476
sg7
I0
sa(dp1511
g6
F48.13327956199646
sg7
I0
sa(dp1512
g6
F48.162054061889648
sg7
I633
sa(dp1513
g6
F48.190857172012329
sg7
I0
sa(dp1514
g6
F48.222098588943481
sg7
I0
sa(dp1515
g6
F48.252112150192261
sg7
I0
sa(dp1516
g6
F48.282116651535034
sg7
I0
sa(dp1517
g6
F48.311413049697876
sg7
I0
sa(dp1518
g6
F48.345850706100464
sg7
I0
sa(dp1519
g6
F48.381516218185425
sg7
I0
sa(dp1520
g6
F48.414567708969116
sg7
I0
sa(dp1521
g6
F48.448278188705444
sg7
I0
sa(dp1522
g6
F48.479537963867188
sg7
I0
sa(dp1523
g6
F48.510840177536011
sg7
I0
sa(dp1524
g6
F48.542101144790649
sg7
I0
sa(dp1525
g6
F48.573310613632202
sg7
I0
sa(dp1526
g6
F48.60454249382019
sg7
I0
sa(dp1527
g6
F48.635840654373169
sg7
I0
sa(dp1528
g6
F48.668338060379028
sg7
I0
sa(dp1529
g6
F48.695839643478394
sg7
I0
sa(dp1530
g6
F48.727079629898071
sg7
I236
sa(dp1531
g6
F48.758278131484985
sg7
I0
sa(dp1532
g6
F48.788291215896606
sg7
I0
sa(dp1533
g6
F48.822657108306885
sg7
I0
sa(dp1534
g6
F48.853286981582642
sg7
I0
sa(dp1535
g6
F48.880032062530518
sg7
I0
sa(dp1536
g6
F48.911339998245239
sg7
I544
sa(dp1537
g6
F48.94214653968811
sg7
I0
sa(dp1538
g6
F48.974645614624023
sg7
I0
sa(dp1539
g6
F49.012140512466431
sg7
I0
sa(dp1540
g6
F49.048383951187134
sg7
I-871
sa(dp1541
g6
F49.079653978347778
sg7
I0
sa(dp1542
g6
F49.105921030044556
sg7
I0
sa(dp1543
g6
F49.137179613113403
sg7
I0
sa(dp1544
g6
F49.16840672492981
sg7
I0
sa(dp1545
g6
F49.19464898109436
sg7
I0
sa(dp1546
g6
F49.225903034210205
sg7
I0
sa(dp1547
g6
F49.26028299331665
sg7
I0
sa(dp1548
g6
F49.299046516418457
sg7
I0
sa(dp1549
g6
F49.339645147323608
sg7
I0
sa(dp1550
g6
F49.371508359909058
sg7
I0
sa(dp1551
g6
F49.402165651321411
sg7
I0
sa(dp1552
g6
F49.432166576385498
sg7
I0
sa(dp1553
g6
F49.463417530059814
sg7
I0
sa(dp1554
g6
F49.494641542434692
sg7
I463
sa(dp1555
g6
F49.525890588760376
sg7
I0
sa(dp1556
g6
F49.557154893875122
sg7
I0
sa(dp1557
g6
F49.588390111923218
sg7
I0
sa(dp1558
g6
F49.619635343551636
sg7
I0
sa(dp1559
g6
F49.650902509689331
sg7
I0
sa(dp1560
g6
F49.682128667831421
sg7
I0
sa(dp1561
g6
F49.713394403457642
sg7
I0
sa(dp1562
g6
F49.744665384292603
sg7
I0
sa(dp1563
g6
F49.775892972946167
sg7
I0
sa(dp1564
g6
F49.812085390090942
sg7
I0
sa(dp1565
g6
F49.848322153091431
sg7
I0
sa(dp1566
g6
F49.879608392715454
sg7
I0
sa(dp1567
g6
F49.908354997634888
sg7
I0
sa(dp1568
g6
F49.939583539962769
sg7
I0
sa(dp1569
g6
F49.973770618438721
sg7
I0
sa(dp1570
g6
F50.00502610206604
sg7
I543
sasa(dp1571
g2
I150
sg3
(lp1572
(dp1573
g6
F0.13007140159606934
sg7
I3847
sa(dp1574
g6
F0.17193984985351562
sg7
I3645
sa(dp1575
g6
F0.21445107460021973
sg7
I3896
sa(dp1576
g6
F0.24949049949645996
sg7
I3986
sa(dp1577
g6
F0.28267478942871094
sg7
I3926
sa(dp1578
g6
F0.3151395320892334
sg7
I4128
sa(dp1579
g6
F0.35198497772216797
sg7
I4183
sa(dp1580
g6
F0.38642597198486328
sg7
I4186
sa(dp1581
g6
F0.41561102867126465
sg7
I4185
sa(dp1582
g6
F0.44116330146789551
sg7
I4184
sa(dp1583
g6
F0.46634745597839355
sg7
I4185
sa(dp1584
g6
F0.49196076393127441
sg7
I4184
sa(dp1585
g6
F0.51757979393005371
sg7
I4185
sa(dp1586
g6
F0.5489037036895752
sg7
I4186
sa(dp1587
g6
F0.5839073657989502
sg7
I4184
sa(dp1588
g6
F0.61391139030456543
sg7
I4182
sa(dp1589
g6
F0.64516472816467285
sg7
I4187
sa(dp1590
g6
F0.67635226249694824
sg7
I4186
sa(dp1591
g6
F0.70634245872497559
sg7
I4182
sa(dp1592
g6
F0.73634123802185059
sg7
I4185
sa(dp1593
g6
F0.76759743690490723
sg7
I4185
sa(dp1594
g6
F0.7988893985748291
sg7
I4187
sa(dp1595
g6
F0.83014035224914551
sg7
I4184
sa(dp1596
g6
F0.86265349388122559
sg7
I4184
sa(dp1597
g6
F0.89015340805053711
sg7
I4186
sa(dp1598
g6
F0.91884183883666992
sg7
I4183
sa(dp1599
g6
F0.95259976387023926
sg7
I4186
sa(dp1600
g6
F0.98426342010498047
sg7
I4182
sa(dp1601
g6
F1.0174243450164795
sg7
I4183
sa(dp1602
g6
F1.0550968647003174
sg7
I4183
sa(dp1603
g6
F1.0863158702850342
sg7
I4180
sa(dp1604
g6
F1.1157479286193848
sg7
I4183
sa(dp1605
g6
F1.1500961780548096
sg7
I4183
sa(dp1606
g6
F1.1812939643859863
sg7
I4174
sa(dp1607
g6
F1.2075450420379639
sg7
I4184
sa(dp1608
g6
F1.2388794422149658
sg7
I4184
sa(dp1609
g6
F1.270132303237915
sg7
I4067
sa(dp1610
g6
F1.3013207912445068
sg7
I4117
sa(dp1611
g6
F1.3325493335723877
sg7
I4182
sa(dp1612
g6
F1.3668859004974365
sg7
I4121
sa(dp1613
g6
F1.4111697673797607
sg7
I4002
sa(dp1614
g6
F1.4506285190582275
sg7
I4049
sa(dp1615
g6
F1.4801332950592041
sg7
I4055
sa(dp1616
g6
F1.5076377391815186
sg7
I4081
sa(dp1617
g6
F1.5401642322540283
sg7
I4072
sa(dp1618
g6
F1.5713639259338379
sg7
I3981
sa(dp1619
g6
F1.6075623035430908
sg7
I3988
sa(dp1620
g6
F1.653864860534668
sg7
I3935
sa(dp1621
g6
F1.6900978088378906
sg7
I3919
sa(dp1622
g6
F1.716264009475708
sg7
I3991
sa(dp1623
g6
F1.7477352619171143
sg7
I3957
sa(dp1624
g6
F1.7858529090881348
sg7
I3915
sa(dp1625
g6
F1.8188550472259521
sg7
I3919
sa(dp1626
g6
F1.8501622676849365
sg7
I3917
sa(dp1627
g6
F1.8857014179229736
sg7
I3912
sa(dp1628
g6
F1.9313285350799561
sg7
I3914
sa(dp1629
g6
F1.9725730419158936
sg7
I3905
sa(dp1630
g6
F1.9988129138946533
sg7
I3906
sa(dp1631
g6
F2.0300934314727783
sg7
I3907
sa(dp1632
g6
F2.0663340091705322
sg7
I3912
sa(dp1633
g6
F2.1025593280792236
sg7
I3906
sa(dp1634
g6
F2.1344203948974609
sg7
I3905
sa(dp1635
g6
F2.1663203239440918
sg7
I3903
sa(dp1636
g6
F2.197556734085083
sg7
I3904
sa(dp1637
g6
F2.2250640392303467
sg7
I3902
sa(dp1638
g6
F2.2575778961181641
sg7
I3900
sa(dp1639
g6
F2.2888243198394775
sg7
I3904
sa(dp1640
g6
F2.3244636058807373
sg7
I3901
sa(dp1641
g6
F2.3599693775177002
sg7
I3896
sa(dp1642
g6
F2.3912243843078613
sg7
I3903
sa(dp1643
g6
F2.4225873947143555
sg7
I3899
sa(dp1644
g6
F2.4613792896270752
sg7
I3895
sa(dp1645
g6
F2.5000967979431152
sg7
I3894
sa(dp1646
g6
F2.5262978076934814
sg7
I3892
sa(dp1647
g6
F2.5576198101043701
sg7
I3892
sa(dp1648
g6
F2.5889244079589844
sg7
I3891
sa(dp1649
g6
F2.6245739459991455
sg7
I3887
sa(dp1650
g6
F2.6601355075836182
sg7
I3807
sa(dp1651
g6
F2.6913249492645264
sg7
I3722
sa(dp1652
g6
F2.7225868701934814
sg7
I3804
sa(dp1653
g6
F2.753854513168335
sg7
I3724
sa(dp1654
g6
F2.785102367401123
sg7
I3642
sa(dp1655
g6
F2.8163340091705322
sg7
I3725
sa(dp1656
g6
F2.8500845432281494
sg7
I3726
sa(dp1657
g6
F2.8788928985595703
sg7
I3726
sa(dp1658
g6
F2.9101283550262451
sg7
I3638
sa(dp1659
g6
F2.9413869380950928
sg7
I3645
sa(dp1660
g6
F2.9726459980010986
sg7
I3730
sa(dp1661
g6
F3.0038614273071289
sg7
I3722
sa(dp1662
g6
F3.0377738475799561
sg7
I3730
sa(dp1663
g6
F3.0752389430999756
sg7
I3814
sa(dp1664
g6
F3.1145188808441162
sg7
I3725
sa(dp1665
g6
F3.1501998901367188
sg7
I3648
sa(dp1666
g6
F3.1764488220214844
sg7
I3643
sa(dp1667
g6
F3.2076966762542725
sg7
I3808
sa(dp1668
g6
F3.2388689517974854
sg7
I3816
sa(dp1669
g6
F3.2676217555999756
sg7
I3649
sa(dp1670
g6
F3.3014063835144043
sg7
I3725
sa(dp1671
g6
F3.3326258659362793
sg7
I3806
sa(dp1672
g6
F3.3639259338378906
sg7
I3727
sa(dp1673
g6
F3.3938882350921631
sg7
I3726
sa(dp1674
g6
F3.4288551807403564
sg7
I3652
sa(dp1675
g6
F3.4682352542877197
sg7
I3810
sa(dp1676
g6
F3.5006973743438721
sg7
I3644
sa(dp1677
g6
F3.5369589328765869
sg7
I3645
sa(dp1678
g6
F3.5694668292999268
sg7
I3889
sa(dp1679
g6
F3.6064009666442871
sg7
I3733
sa(dp1680
g6
F3.6489408016204834
sg7
I3651
sa(dp1681
g6
F3.6851959228515625
sg7
I3646
sa(dp1682
g6
F3.7164037227630615
sg7
I3734
sa(dp1683
g6
F3.7476236820220947
sg7
I3652
sa(dp1684
g6
F3.7783033847808838
sg7
I3646
sa(dp1685
g6
F3.80893874168396
sg7
I3644
sa(dp1686
g6
F3.8401923179626465
sg7
I3654
sa(dp1687
g6
F3.8714654445648193
sg7
I3649
sa(dp1688
g6
F3.9026768207550049
sg7
I3729
sa(dp1689
g6
F3.9325897693634033
sg7
I3651
sa(dp1690
g6
F3.9626257419586182
sg7
I3647
sa(dp1691
g6
F3.9939157962799072
sg7
I3647
sa(dp1692
g6
F4.0301291942596436
sg7
I3727
sa(dp1693
g6
F4.0664284229278564
sg7
I3728
sa(dp1694
g6
F4.1007802486419678
sg7
I3651
sa(dp1695
g6
F4.1326377391815186
sg7
I3647
sa(dp1696
g6
F4.1639199256896973
sg7
I3735
sa(dp1697
g6
F4.2001440525054932
sg7
I3658
sa(dp1698
g6
F4.2338964939117432
sg7
I3650
sa(dp1699
g6
F4.2651665210723877
sg7
I3644
sa(dp1700
g6
F4.296884298324585
sg7
I3649
sa(dp1701
g6
F4.3250763416290283
sg7
I3723
sa(dp1702
g6
F4.357750415802002
sg7
I3655
sa(dp1703
g6
F4.3876993656158447
sg7
I3729
sa(dp1704
g6
F4.4126689434051514
sg7
I3790
sa(dp1705
g6
F4.4438788890838623
sg7
I3645
sa(dp1706
g6
F4.4801433086395264
sg7
I3740
sa(dp1707
g6
F4.51143479347229
sg7
I3736
sa(dp1708
g6
F4.5426990985870361
sg7
I3820
sa(dp1709
g6
F4.5739290714263916
sg7
I3676
sa(dp1710
g6
F4.6033148765563965
sg7
I3657
sa(dp1711
g6
F4.6326901912689209
sg7
I3647
sa(dp1712
g6
F4.6643414497375488
sg7
I3654
sa(dp1713
g6
F4.6955983638763428
sg7
I3812
sa(dp1714
g6
F4.7264368534088135
sg7
I3653
sa(dp1715
g6
F4.7576868534088135
sg7
I3717
sa(dp1716
g6
F4.7851583957672119
sg7
I3796
sa(dp1717
g6
F4.8176643848419189
sg7
I3710
sa(dp1718
g6
F4.8488838672637939
sg7
I3734
sa(dp1719
g6
F4.8801538944244385
sg7
I3640
sa(dp1720
g6
F4.9170739650726318
sg7
I3732
sa(dp1721
g6
F4.9501850605010986
sg7
I3810
sa(dp1722
g6
F4.9889473915100098
sg7
I3793
sa(dp1723
g6
F5.0264289379119873
sg7
I3814
sa(dp1724
g6
F5.0545685291290283
sg7
I3675
sa(dp1725
g6
F5.0925796031951904
sg7
I3713
sa(dp1726
g6
F5.1286895275115967
sg7
I3726
sa(dp1727
g6
F5.1600239276885986
sg7
I3802
sa(dp1728
g6
F5.1914093494415283
sg7
I3656
sa(dp1729
g6
F5.2226908206939697
sg7
I3719
sa(dp1730
g6
F5.2608039379119873
sg7
I3730
sa(dp1731
g6
F5.2939274311065674
sg7
I3735
sa(dp1732
g6
F5.3251273632049561
sg7
I3719
sa(dp1733
g6
F5.3563494682312012
sg7
I3718
sa(dp1734
g6
F5.3876578807830811
sg7
I3723
sa(dp1735
g6
F5.41703200340271
sg7
I3827
sa(dp1736
g6
F5.4414224624633789
sg7
I3718
sa(dp1737
g6
F5.4677073955535889
sg7
I3801
sa(dp1738
g6
F5.4989283084869385
sg7
I3735
sa(dp1739
g6
F5.5301783084869385
sg7
I3730
sa(dp1740
g6
F5.5614182949066162
sg7
I3678
sa(dp1741
g6
F5.5928463935852051
sg7
I3638
sa(dp1742
g6
F5.6259834766387939
sg7
I3639
sa(dp1743
g6
F5.6639149188995361
sg7
I3645
sa(dp1744
g6
F5.6933069229125977
sg7
I3650
sa(dp1745
g6
F5.7226519584655762
sg7
I3727
sa(dp1746
g6
F5.7538883686065674
sg7
I3725
sa(dp1747
g6
F5.7832772731781006
sg7
I3798
sa(dp1748
g6
F5.8176505565643311
sg7
I3656
sa(dp1749
g6
F5.848921537399292
sg7
I3860
sa(dp1750
g6
F5.8751614093780518
sg7
I3801
sa(dp1751
g6
F5.9063980579376221
sg7
I3641
sa(dp1752
g6
F5.937673807144165
sg7
I3860
sa(dp1753
g6
F5.97334885597229
sg7
I3636
sa(dp1754
g6
F6.0158054828643799
sg7
I3917
sa(dp1755
g6
F6.0538914203643799
sg7
I3746
sa(dp1756
g6
F6.0851686000823975
sg7
I3737
sa(dp1757
g6
F6.1214125156402588
sg7
I3646
sa(dp1758
g6
F6.157644510269165
sg7
I3665
sa(dp1759
g6
F6.1851494312286377
sg7
I3789
sa(dp1760
g6
F6.2193388938903809
sg7
I3611
sa(dp1761
g6
F6.2549159526824951
sg7
I3732
sa(dp1762
g6
F6.2819919586181641
sg7
I3646
sa(dp1763
g6
F6.315140962600708
sg7
I3655
sa(dp1764
g6
F6.3507592678070068
sg7
I3811
sa(dp1765
g6
F6.3794653415679932
sg7
I3781
sa(dp1766
g6
F6.4125382900238037
sg7
I4035
sa(dp1767
g6
F6.4437313079833984
sg7
I3708
sa(dp1768
g6
F6.4749183654785156
sg7
I3857
sa(dp1769
g6
F6.5111849308013916
sg7
I3795
sa(dp1770
g6
F6.5475618839263916
sg7
I3814
sa(dp1771
g6
F6.5789153575897217
sg7
I3734
sa(dp1772
g6
F6.6101548671722412
sg7
I3665
sa(dp1773
g6
F6.6401193141937256
sg7
I3650
sa(dp1774
g6
F6.6701264381408691
sg7
I3643
sa(dp1775
g6
F6.7014124393463135
sg7
I3789
sa(dp1776
g6
F6.7326605319976807
sg7
I3713
sa(dp1777
g6
F6.768906831741333
sg7
I3576
sa(dp1778
g6
F6.8051550388336182
sg7
I3720
sa(dp1779
g6
F6.8364248275756836
sg7
I3849
sa(dp1780
g6
F6.8678693771362305
sg7
I3788
sa(dp1781
g6
F6.9122254848480225
sg7
I3657
sa(dp1782
g6
F6.9514024257659912
sg7
I3716
sa(dp1783
g6
F6.9864203929901123
sg7
I3646
sa(dp1784
g6
F7.02457594871521
sg7
I3873
sa(dp1785
g6
F7.0588984489440918
sg7
I3721
sa(dp1786
g6
F7.095134973526001
sg7
I3846
sa(dp1787
g6
F7.1264009475708008
sg7
I3796
sa(dp1788
g6
F7.1576535701751709
sg7
I3877
sa(dp1789
g6
F7.1888973712921143
sg7
I3629
sa(dp1790
g6
F7.2201473712921143
sg7
I3698
sa(dp1791
g6
F7.2538938522338867
sg7
I3669
sa(dp1792
g6
F7.2826321125030518
sg7
I3712
sa(dp1793
g6
F7.3125834465026855
sg7
I3791
sa(dp1794
g6
F7.3450348377227783
sg7
I3717
sa(dp1795
g6
F7.3825619220733643
sg7
I3751
sa(dp1796
g6
F7.4188430309295654
sg7
I3859
sa(dp1797
g6
F7.4555590152740479
sg7
I3638
sa(dp1798
g6
F7.4887421131134033
sg7
I3656
sa(dp1799
g6
F7.5126707553863525
sg7
I3621
sa(dp1800
g6
F7.5426490306854248
sg7
I3777
sa(dp1801
g6
F7.5726091861724854
sg7
I3626
sa(dp1802
g6
F7.6087911128997803
sg7
I3271
sa(dp1803
g6
F7.6482033729553223
sg7
I3627
sa(dp1804
g6
F7.6776523590087891
sg7
I3789
sa(dp1805
g6
F7.7088472843170166
sg7
I3624
sa(dp1806
g6
F7.7425854206085205
sg7
I3797
sa(dp1807
g6
F7.7767653465270996
sg7
I3921
sa(dp1808
g6
F7.8092589378356934
sg7
I3627
sa(dp1809
g6
F7.841395378112793
sg7
I3571
sa(dp1810
g6
F7.8701117038726807
sg7
I3491
sa(dp1811
g6
F7.9038329124450684
sg7
I3631
sa(dp1812
g6
F7.9420063495635986
sg7
I3640
sa(dp1813
g6
F7.9719626903533936
sg7
I3888
sa(dp1814
g6
F8.0069582462310791
sg7
I3767
sa(dp1815
g6
F8.048875093460083
sg7
I3614
sa(dp1816
g6
F8.0840449333190918
sg7
I3788
sa(dp1817
g6
F8.1146299839019775
sg7
I3770
sa(dp1818
g6
F8.1475849151611328
sg7
I3694
sa(dp1819
g6
F8.1744997501373291
sg7
I3672
sa(dp1820
g6
F8.2056989669799805
sg7
I3629
sa(dp1821
g6
F8.2501003742218018
sg7
I3546
sa(dp1822
g6
F8.2882323265075684
sg7
I3807
sa(dp1823
g6
F8.3150763511657715
sg7
I3087
sa(dp1824
g6
F8.3444821834564209
sg7
I3745
sa(dp1825
g6
F8.3788855075836182
sg7
I3066
sa(dp1826
g6
F8.4101278781890869
sg7
I3721
sa(dp1827
g6
F8.4413440227508545
sg7
I3647
sa(dp1828
g6
F8.4725558757781982
sg7
I3490
sa(dp1829
g6
F8.5038025379180908
sg7
I3702
sa(dp1830
g6
F8.5350782871246338
sg7
I3681
sa(dp1831
g6
F8.5663414001464844
sg7
I3858
sa(dp1832
g6
F8.5988452434539795
sg7
I3324
sa(dp1833
g6
F8.6300857067108154
sg7
I3850
sa(dp1834
g6
F8.6600887775421143
sg7
I2887
sa(dp1835
g6
F8.6913349628448486
sg7
I3781
sa(dp1836
g6
F8.722606897354126
sg7
I3629
sa(dp1837
g6
F8.7539043426513672
sg7
I4008
sa(dp1838
g6
F8.7851336002349854
sg7
I3612
sa(dp1839
g6
F8.8163673877716064
sg7
I3794
sa(dp1840
g6
F8.8476388454437256
sg7
I3619
sa(dp1841
g6
F8.8788824081420898
sg7
I3695
sa(dp1842
g6
F8.9101417064666748
sg7
I3201
sa(dp1843
g6
F8.9414036273956299
sg7
I3671
sa(dp1844
g6
F8.9851593971252441
sg7
I3392
sa(dp1845
g6
F9.0289008617401123
sg7
I3289
sa(dp1846
g6
F9.0651464462280273
sg7
I3687
sa(dp1847
g6
F9.0963904857635498
sg7
I3807
sa(dp1848
g6
F9.1226475238800049
sg7
I3429
sa(dp1849
g6
F9.1526553630828857
sg7
I3200
sa(dp1850
g6
F9.1819338798522949
sg7
I3522
sa(dp1851
g6
F9.2099993228912354
sg7
I3716
sa(dp1852
g6
F9.2437880039215088
sg7
I3464
sa(dp1853
g6
F9.2750864028930664
sg7
I3035
sa(dp1854
g6
F9.3063888549804688
sg7
I3564
sa(dp1855
g6
F9.3376433849334717
sg7
I3632
sa(dp1856
g6
F9.3681957721710205
sg7
I3348
sa(dp1857
g6
F9.3987758159637451
sg7
I3903
sa(dp1858
g6
F9.4357292652130127
sg7
I3283
sa(dp1859
g6
F9.4751534461975098
sg7
I3218
sa(dp1860
g6
F9.5063817501068115
sg7
I3786
sa(dp1861
g6
F9.5401237010955811
sg7
I3348
sa(dp1862
g6
F9.5763759613037109
sg7
I3840
sa(dp1863
g6
F9.6076304912567139
sg7
I3720
sa(dp1864
g6
F9.6388823986053467
sg7
I3301
sa(dp1865
g6
F9.6701304912567139
sg7
I3375
sa(dp1866
g6
F9.7013914585113525
sg7
I2966
sa(dp1867
g6
F9.7326369285583496
sg7
I3515
sa(dp1868
g6
F9.7638378143310547
sg7
I3518
sa(dp1869
g6
F9.7950758934020996
sg7
I3874
sa(dp1870
g6
F9.8256723880767822
sg7
I2986
sa(dp1871
g6
F9.8612902164459229
sg7
I3695
sa(dp1872
g6
F9.8978269100189209
sg7
I3681
sa(dp1873
g6
F9.9291059970855713
sg7
I3023
sa(dp1874
g6
F9.9582428932189941
sg7
I3509
sa(dp1875
g6
F9.9926013946533203
sg7
I3244
sa(dp1876
g6
F10.030099391937256
sg7
I3368
sa(dp1877
g6
F10.062576293945312
sg7
I1650
sa(dp1878
g6
F10.091900110244751
sg7
I3524
sa(dp1879
g6
F10.131309986114502
sg7
I3437
sa(dp1880
g6
F10.170726537704468
sg7
I2823
sa(dp1881
g6
F10.203201055526733
sg7
I1906
sa(dp1882
g6
F10.232579469680786
sg7
I3264
sa(dp1883
g6
F10.258844375610352
sg7
I3574
sa(dp1884
g6
F10.290108442306519
sg7
I3042
sa(dp1885
g6
F10.327602863311768
sg7
I1131
sa(dp1886
g6
F10.365077495574951
sg7
I2924
sa(dp1887
g6
F10.396317481994629
sg7
I2820
sa(dp1888
g6
F10.422580480575562
sg7
I2059
sa(dp1889
g6
F10.453842878341675
sg7
I2920
sa(dp1890
g6
F10.490111589431763
sg7
I2711
sa(dp1891
g6
F10.526393413543701
sg7
I2350
sa(dp1892
g6
F10.557651281356812
sg7
I2440
sa(dp1893
g6
F10.589352369308472
sg7
I2435
sa(dp1894
g6
F10.62183141708374
sg7
I2271
sa(dp1895
g6
F10.648829460144043
sg7
I1623
sa(dp1896
g6
F10.680095911026001
sg7
I2038
sa(dp1897
g6
F10.711411952972412
sg7
I3558
sa(dp1898
g6
F10.74762487411499
sg7
I2353
sa(dp1899
g6
F10.783786535263062
sg7
I2117
sa(dp1900
g6
F10.81254243850708
sg7
I2867
sa(dp1901
g6
F10.846277475357056
sg7
I2419
sa(dp1902
g6
F10.877494335174561
sg7
I3305
sa(dp1903
g6
F10.908750295639038
sg7
I2530
sa(dp1904
g6
F10.943140745162964
sg7
I2989
sa(dp1905
g6
F10.972498893737793
sg7
I1879
sa(dp1906
g6
F11.003741979598999
sg7
I2941
sa(dp1907
g6
F11.03504490852356
sg7
I2389
sa(dp1908
g6
F11.066416025161743
sg7
I1930
sa(dp1909
g6
F11.097690343856812
sg7
I2623
sa(dp1910
g6
F11.125173330307007
sg7
I1803
sa(dp1911
g6
F11.15709662437439
sg7
I2281
sa(dp1912
g6
F11.187744855880737
sg7
I1034
sa(dp1913
g6
F11.214002847671509
sg7
I1543
sa(dp1914
g6
F11.24527382850647
sg7
I1700
sa(dp1915
g6
F11.276505470275879
sg7
I1768
sa(dp1916
g6
F11.307703971862793
sg7
I1793
sa(dp1917
g6
F11.338954925537109
sg7
I2454
sa(dp1918
g6
F11.37022590637207
sg7
I2353
sa(dp1919
g6
F11.403987407684326
sg7
I1475
sa(dp1920
g6
F11.432736396789551
sg7
I1188
sa(dp1921
g6
F11.463259935379028
sg7
I885
sa(dp1922
g6
F11.493795394897461
sg7
I1953
sa(dp1923
g6
F11.525163888931274
sg7
I2969
sa(dp1924
g6
F11.55526328086853
sg7
I2799
sa(dp1925
g6
F11.585255861282349
sg7
I1578
sa(dp1926
g6
F11.616425275802612
sg7
I765
sa(dp1927
g6
F11.647662401199341
sg7
I3004
sa(dp1928
g6
F11.678998231887817
sg7
I3212
sa(dp1929
g6
F11.71018385887146
sg7
I1723
sa(dp1930
g6
F11.746354341506958
sg7
I2505
sa(dp1931
g6
F11.783091306686401
sg7
I1471
sa(dp1932
g6
F11.814399480819702
sg7
I2338
sa(dp1933
g6
F11.845222234725952
sg7
I1499
sa(dp1934
g6
F11.889519453048706
sg7
I2793
sa(dp1935
g6
F11.928787469863892
sg7
I1730
sa(dp1936
g6
F11.963879346847534
sg7
I1925
sa(dp1937
g6
F12.005226373672485
sg7
I1472
sa(dp1938
g6
F12.037712812423706
sg7
I953
sa(dp1939
g6
F12.076371908187866
sg7
I2123
sa(dp1940
g6
F12.115038394927979
sg7
I2424
sa(dp1941
g6
F12.141385316848755
sg7
I2586
sa(dp1942
g6
F12.172716856002808
sg7
I2839
sa(dp1943
g6
F12.204200506210327
sg7
I2646
sa(dp1944
g6
F12.235397815704346
sg7
I2116
sa(dp1945
g6
F12.266407251358032
sg7
I2156
sa(dp1946
g6
F12.297732591629028
sg7
I637
sa(dp1947
g6
F12.333970785140991
sg7
I1790
sa(dp1948
g6
F12.370232820510864
sg7
I2795
sa(dp1949
g6
F12.401468515396118
sg7
I223
sa(dp1950
g6
F12.432735443115234
sg7
I2317
sa(dp1951
g6
F12.472110509872437
sg7
I-86
sa(dp1952
g6
F12.506430864334106
sg7
I889
sa(dp1953
g6
F12.532703399658203
sg7
I1399
sa(dp1954
g6
F12.568972826004028
sg7
I1891
sa(dp1955
g6
F12.610852956771851
sg7
I1272
sa(dp1956
g6
F12.650843381881714
sg7
I1414
sa(dp1957
g6
F12.688152074813843
sg7
I2473
sa(dp1958
g6
F12.721875429153442
sg7
I1085
sa(dp1959
g6
F12.752686738967896
sg7
I1836
sa(dp1960
g6
F12.788325548171997
sg7
I560
sa(dp1961
g6
F12.823943376541138
sg7
I1159
sa(dp1962
g6
F12.853342771530151
sg7
I396
sa(dp1963
g6
F12.887743234634399
sg7
I1008
sa(dp1964
g6
F12.922137022018433
sg7
I1658
sa(dp1965
g6
F12.956490755081177
sg7
I491
sa(dp1966
g6
F12.987092733383179
sg7
I1629
sa(dp1967
g6
F13.017790079116821
sg7
I1806
sa(dp1968
g6
F13.05591893196106
sg7
I1362
sa(dp1969
g6
F13.100215911865234
sg7
I1460
sa(dp1970
g6
F13.137710809707642
sg7
I1477
sa(dp1971
g6
F13.173953294754028
sg7
I1127
sa(dp1972
g6
F13.220197439193726
sg7
I2078
sa(dp1973
g6
F13.256523847579956
sg7
I2472
sa(dp1974
g6
F13.289042711257935
sg7
I674
sa(dp1975
g6
F13.321452856063843
sg7
I1455
sa(dp1976
g6
F13.347601890563965
sg7
I899
sa(dp1977
g6
F13.383779764175415
sg7
I1384
sa(dp1978
g6
F13.420058012008667
sg7
I1431
sa(dp1979
g6
F13.451851844787598
sg7
I-776
sa(dp1980
g6
F13.483132123947144
sg7
I856
sa(dp1981
g6
F13.512077569961548
sg7
I971
sa(dp1982
g6
F13.546440362930298
sg7
I-1265
sa(dp1983
g6
F13.592052459716797
sg7
I1718
sa(dp1984
g6
F13.633967876434326
sg7
I1090
sa(dp1985
g6
F13.660869836807251
sg7
I1395
sa(dp1986
g6
F13.691445112228394
sg7
I1311
sa(dp1987
g6
F13.722679376602173
sg7
I812
sa(dp1988
g6
F13.753973722457886
sg7
I2058
sa(dp1989
g6
F13.7853844165802
sg7
I506
sa(dp1990
g6
F13.8166184425354
sg7
I711
sa(dp1991
g6
F13.850831270217896
sg7
I1066
sa(dp1992
g6
F13.877694368362427
sg7
I117
sa(dp1993
g6
F13.901443481445312
sg7
I-594
sa(dp1994
g6
F13.930842876434326
sg7
I980
sa(dp1995
g6
F13.960236787796021
sg7
I544
sa(dp1996
g6
F13.991487503051758
sg7
I149
sa(dp1997
g6
F14.025205373764038
sg7
I548
sa(dp1998
g6
F14.052704334259033
sg7
I1352
sa(dp1999
g6
F14.084594488143921
sg7
I756
sa(dp2000
g6
F14.117076396942139
sg7
I1997
sa(dp2001
g6
F14.147687911987305
sg7
I-101
sa(dp2002
g6
F14.183936357498169
sg7
I-981
sa(dp2003
g6
F14.223914384841919
sg7
I132
sa(dp2004
g6
F14.265797853469849
sg7
I245
sa(dp2005
g6
F14.298935413360596
sg7
I2160
sa(dp2006
g6
F14.33018684387207
sg7
I1242
sa(dp2007
g6
F14.361435413360596
sg7
I2032
sa(dp2008
g6
F14.392680883407593
sg7
I545
sa(dp2009
g6
F14.422671556472778
sg7
I1310
sa(dp2010
g6
F14.452688932418823
sg7
I1090
sa(dp2011
g6
F14.483983278274536
sg7
I804
sa(dp2012
g6
F14.515244245529175
sg7
I267
sa(dp2013
g6
F14.546472311019897
sg7
I-201
sa(dp2014
g6
F14.577087879180908
sg7
I452
sa(dp2015
g6
F14.607715368270874
sg7
I1081
sa(dp2016
g6
F14.633342981338501
sg7
I1497
sa(dp2017
g6
F14.66396689414978
sg7
I1618
sa(dp2018
g6
F14.695254802703857
sg7
I1193
sa(dp2019
g6
F14.734006404876709
sg7
I997
sa(dp2020
g6
F14.773947477340698
sg7
I513
sa(dp2021
g6
F14.806449890136719
sg7
I1003
sa(dp2022
g6
F14.837735891342163
sg7
I1299
sa(dp2023
g6
F14.868995428085327
sg7
I543
sa(dp2024
g6
F14.907101392745972
sg7
I1286
sa(dp2025
g6
F14.940167427062988
sg7
I-206
sa(dp2026
g6
F14.97140097618103
sg7
I834
sa(dp2027
g6
F15.002686262130737
sg7
I456
sa(dp2028
g6
F15.033910989761353
sg7
I-349
sa(dp2029
g6
F15.063899278640747
sg7
I-348
sa(dp2030
g6
F15.088880777359009
sg7
I-213
sa(dp2031
g6
F15.115127801895142
sg7
I-810
sa(dp2032
g6
F15.145148515701294
sg7
I1566
sa(dp2033
g6
F15.176367044448853
sg7
I-366
sa(dp2034
g6
F15.208898305892944
sg7
I612
sa(dp2035
g6
F15.240144491195679
sg7
I0
sa(dp2036
g6
F15.276403903961182
sg7
I678
sa(dp2037
g6
F15.312711477279663
sg7
I-202
sa(dp2038
g6
F15.347720861434937
sg7
I1383
sa(dp2039
g6
F15.387773752212524
sg7
I18
sa(dp2040
g6
F15.418952465057373
sg7
I493
sa(dp2041
g6
F15.44512152671814
sg7
I843
sa(dp2042
g6
F15.476423025131226
sg7
I-210
sa(dp2043
g6
F15.507745981216431
sg7
I388
sa(dp2044
g6
F15.543967962265015
sg7
I1095
sa(dp2045
g6
F15.583963871002197
sg7
I1109
sa(dp2046
g6
F15.613976240158081
sg7
I-649
sa(dp2047
g6
F15.642671823501587
sg7
I838
sa(dp2048
g6
F15.671494483947754
sg7
I217
sa(dp2049
g6
F15.702126264572144
sg7
I106
sa(dp2050
g6
F15.732719421386719
sg7
I1082
sa(dp2051
g6
F15.75896692276001
sg7
I-48
sa(dp2052
g6
F15.790178537368774
sg7
I231
sa(dp2053
g6
F15.827877283096313
sg7
I519
sa(dp2054
g6
F15.87295126914978
sg7
I213
sa(dp2055
g6
F15.913930892944336
sg7
I747
sa(dp2056
g6
F15.942707777023315
sg7
I1739
sa(dp2057
g6
F15.971455812454224
sg7
I1498
sa(dp2058
g6
F16.003262281417847
sg7
I-246
sa(dp2059
g6
F16.037640333175659
sg7
I-122
sa(dp2060
g6
F16.080064058303833
sg7
I511
sa(dp2061
g6
F16.118197917938232
sg7
I516
sa(dp2062
g6
F16.146458387374878
sg7
I997
sa(dp2063
g6
F16.176477432250977
sg7
I48
sa(dp2064
g6
F16.209579467773438
sg7
I0
sa(dp2065
g6
F16.242674589157104
sg7
I0
sa(dp2066
g6
F16.271413087844849
sg7
I558
sa(dp2067
g6
F16.306424856185913
sg7
I138
sa(dp2068
g6
F16.346435785293579
sg7
I322
sa(dp2069
g6
F16.377764940261841
sg7
I-830
sa(dp2070
g6
F16.41344141960144
sg7
I-562
sa(dp2071
g6
F16.450180768966675
sg7
I480
sa(dp2072
g6
F16.477686405181885
sg7
I-20
sa(dp2073
g6
F16.50650429725647
sg7
I1845
sa(dp2074
g6
F16.540181398391724
sg7
I12
sa(dp2075
g6
F16.571436405181885
sg7
I496
sa(dp2076
g6
F16.600815534591675
sg7
I0
sa(dp2077
g6
F16.634539365768433
sg7
I0
sa(dp2078
g6
F16.665140390396118
sg7
I372
sa(dp2079
g6
F16.696449518203735
sg7
I187
sa(dp2080
g6
F16.730253934860229
sg7
I1018
sa(dp2081
g6
F16.760143995285034
sg7
I-180
sa(dp2082
g6
F16.790158987045288
sg7
I-196
sa(dp2083
g6
F16.822726011276245
sg7
I0
sa(dp2084
g6
F16.855814456939697
sg7
I769
sa(dp2085
g6
F16.886459112167358
sg7
I104
sa(dp2086
g6
F16.913955450057983
sg7
I461
sa(dp2087
g6
F16.9426589012146
sg7
I-572
sa(dp2088
g6
F16.973238706588745
sg7
I266
sa(dp2089
g6
F17.010751485824585
sg7
I1495
sa(dp2090
g6
F17.048913240432739
sg7
I-108
sa(dp2091
g6
F17.087719202041626
sg7
I0
sa(dp2092
g6
F17.12474799156189
sg7
I346
sa(dp2093
g6
F17.15655255317688
sg7
I194
sa(dp2094
g6
F17.200196504592896
sg7
I385
sa(dp2095
g6
F17.238925695419312
sg7
I0
sa(dp2096
g6
F17.267642259597778
sg7
I658
sa(dp2097
g6
F17.305184841156006
sg7
I347
sa(dp2098
g6
F17.343324899673462
sg7
I412
sa(dp2099
g6
F17.37394642829895
sg7
I555
sa(dp2100
g6
F17.401444911956787
sg7
I367
sa(dp2101
g6
F17.433876991271973
sg7
I2263
sa(dp2102
g6
F17.468876838684082
sg7
I-212
sa(dp2103
g6
F17.497702836990356
sg7
I823
sa(dp2104
g6
F17.527729272842407
sg7
I0
sa(dp2105
g6
F17.570212364196777
sg7
I556
sa(dp2106
g6
F17.608899831771851
sg7
I95
sa(dp2107
g6
F17.640156030654907
sg7
I796
sa(dp2108
g6
F17.671417951583862
sg7
I474
sa(dp2109
g6
F17.700226068496704
sg7
I473
sa(dp2110
g6
F17.733914375305176
sg7
I1770
sa(dp2111
g6
F17.765076875686646
sg7
I62
sa(dp2112
g6
F17.796406507492065
sg7
I1337
sa(dp2113
g6
F17.828222036361694
sg7
I359
sa(dp2114
g6
F17.857591390609741
sg7
I0
sa(dp2115
g6
F17.888919830322266
sg7
I-194
sa(dp2116
g6
F17.922724962234497
sg7
I65
sa(dp2117
g6
F17.95398998260498
sg7
I1173
sa(dp2118
g6
F17.980183839797974
sg7
I0
sa(dp2119
g6
F18.006437540054321
sg7
I778
sa(dp2120
g6
F18.03763747215271
sg7
I0
sa(dp2121
g6
F18.068783521652222
sg7
I0
sa(dp2122
g6
F18.1012864112854
sg7
I-119
sa(dp2123
g6
F18.133769750595093
sg7
I1085
sa(dp2124
g6
F18.159952402114868
sg7
I188
sa(dp2125
g6
F18.191208600997925
sg7
I643
sa(dp2126
g6
F18.22295093536377
sg7
I-702
sa(dp2127
g6
F18.25423789024353
sg7
I280
sa(dp2128
g6
F18.289978504180908
sg7
I-444
sa(dp2129
g6
F18.327483892440796
sg7
I-741
sa(dp2130
g6
F18.360043287277222
sg7
I636
sa(dp2131
g6
F18.386281967163086
sg7
I0
sa(dp2132
g6
F18.416916847229004
sg7
I0
sa(dp2133
g6
F18.447546243667603
sg7
I744
sa(dp2134
g6
F18.473795890808105
sg7
I0
sa(dp2135
g6
F18.500039339065552
sg7
I713
sa(dp2136
g6
F18.52941107749939
sg7
I639
sa(dp2137
g6
F18.563795328140259
sg7
I0
sa(dp2138
g6
F18.595036268234253
sg7
I0
sa(dp2139
g6
F18.63254189491272
sg7
I1464
sa(dp2140
g6
F18.670048952102661
sg7
I837
sa(dp2141
g6
F18.701297998428345
sg7
I-351
sa(dp2142
g6
F18.73255181312561
sg7
I1053
sa(dp2143
g6
F18.758793592453003
sg7
I544
sa(dp2144
g6
F18.78818678855896
sg7
I-33
sa(dp2145
g6
F18.822695016860962
sg7
I615
sa(dp2146
g6
F18.854047536849976
sg7
I-147
sa(dp2147
g6
F18.885310888290405
sg7
I1139
sa(dp2148
g6
F18.916553258895874
sg7
I111
sa(dp2149
g6
F18.947754621505737
sg7
I711
sa(dp2150
g6
F18.978998899459839
sg7
I0
sa(dp2151
g6
F19.010250329971313
sg7
I426
sa(dp2152
g6
F19.041517019271851
sg7
I641
sa(dp2153
g6
F19.072786569595337
sg7
I-72
sa(dp2154
g6
F19.103995084762573
sg7
I427
sa(dp2155
g6
F19.135268926620483
sg7
I-448
sa(dp2156
g6
F19.166573286056519
sg7
I-529
sa(dp2157
g6
F19.195926904678345
sg7
I217
sa(dp2158
g6
F19.230293035507202
sg7
I0
sa(dp2159
g6
F19.261519432067871
sg7
I539
sa(dp2160
g6
F19.292771577835083
sg7
I739
sa(dp2161
g6
F19.327772855758667
sg7
I0
sa(dp2162
g6
F19.362763404846191
sg7
I404
sa(dp2163
g6
F19.394013404846191
sg7
I-182
sa(dp2164
g6
F19.425276517868042
sg7
I453
sa(dp2165
g6
F19.456527471542358
sg7
I0
sa(dp2166
g6
F19.487767457962036
sg7
I0
sa(dp2167
g6
F19.51903223991394
sg7
I540
sa(dp2168
g6
F19.547781705856323
sg7
I554
sa(dp2169
g6
F19.581537485122681
sg7
I-112
sa(dp2170
g6
F19.612787008285522
sg7
I443
sa(dp2171
g6
F19.644021272659302
sg7
I504
sa(dp2172
g6
F19.680377721786499
sg7
I625
sa(dp2173
g6
F19.714730024337769
sg7
I533
sa(dp2174
g6
F19.750184297561646
sg7
I0
sa(dp2175
g6
F19.787723779678345
sg7
I382
sa(dp2176
g6
F19.819029808044434
sg7
I0
sa(dp2177
g6
F19.850290536880493
sg7
I0
sa(dp2178
g6
F19.881520986557007
sg7
I523
sa(dp2179
g6
F19.912730932235718
sg7
I764
sa(dp2180
g6
F19.944008350372314
sg7
I357
sa(dp2181
g6
F19.975283861160278
sg7
I361
sa(dp2182
g6
F20.01148796081543
sg7
I0
sa(dp2183
g6
F20.04773736000061
sg7
I543
sa(dp2184
g6
F20.079033613204956
sg7
I-5
sa(dp2185
g6
F20.110247373580933
sg7
I191
sa(dp2186
g6
F20.141506433486938
sg7
I672
sa(dp2187
g6
F20.17277979850769
sg7
I462
sa(dp2188
g6
F20.20401930809021
sg7
I638
sa(dp2189
g6
F20.235288858413696
sg7
I0
sa(dp2190
g6
F20.266542434692383
sg7
I0
sa(dp2191
g6
F20.295892000198364
sg7
I-89
sa(dp2192
g6
F20.330278396606445
sg7
I1249
sa(dp2193
g6
F20.366537809371948
sg7
I0
sa(dp2194
g6
F20.397658586502075
sg7
I747
sa(dp2195
g6
F20.423786878585815
sg7
I0
sa(dp2196
g6
F20.451281309127808
sg7
I0
sa(dp2197
g6
F20.483776807785034
sg7
I854
sa(dp2198
g6
F20.515032529830933
sg7
I275
sa(dp2199
g6
F20.541375875473022
sg7
I0
sa(dp2200
g6
F20.571501970291138
sg7
I-71
sa(dp2201
g6
F20.606539487838745
sg7
I103
sa(dp2202
g6
F20.637782335281372
sg7
I840
sa(dp2203
g6
F20.669032335281372
sg7
I141
sa(dp2204
g6
F20.703401327133179
sg7
I458
sa(dp2205
g6
F20.732742071151733
sg7
I-180
sa(dp2206
g6
F20.763968944549561
sg7
I-91
sa(dp2207
g6
F20.795268297195435
sg7
I433
sa(dp2208
g6
F20.836524248123169
sg7
I539
sa(dp2209
g6
F20.877708435058594
sg7
I0
sa(dp2210
g6
F20.909641027450562
sg7
I0
sa(dp2211
g6
F20.940247774124146
sg7
I641
sa(dp2212
g6
F20.970778465270996
sg7
I0
sa(dp2213
g6
F21.0039222240448
sg7
I-36
sa(dp2214
g6
F21.037039518356323
sg7
I325
sa(dp2215
g6
F21.070820093154907
sg7
I-184
sa(dp2216
g6
F21.101496458053589
sg7
I-566
sa(dp2217
g6
F21.139567852020264
sg7
I0
sa(dp2218
g6
F21.178943872451782
sg7
I0
sa(dp2219
g6
F21.221436262130737
sg7
I984
sa(dp2220
g6
F21.263314485549927
sg7
I287
sa(dp2221
g6
F21.304449319839478
sg7
I0
sa(dp2222
g6
F21.343833923339844
sg7
I0
sa(dp2223
g6
F21.380934953689575
sg7
I-1062
sa(dp2224
g6
F21.418450832366943
sg7
I-649
sa(dp2225
g6
F21.449661493301392
sg7
I0
sa(dp2226
g6
F21.479573965072632
sg7
I945
sa(dp2227
g6
F21.510784387588501
sg7
I832
sa(dp2228
g6
F21.541479825973511
sg7
I0
sa(dp2229
g6
F21.575241327285767
sg7
I-412
sa(dp2230
g6
F21.61336874961853
sg7
I0
sa(dp2231
g6
F21.644016981124878
sg7
I0
sa(dp2232
g6
F21.681463956832886
sg7
I659
sa(dp2233
g6
F21.722680807113647
sg7
I0
sa(dp2234
g6
F21.76335597038269
sg7
I443
sa(dp2235
g6
F21.807100057601929
sg7
I0
sa(dp2236
g6
F21.842825412750244
sg7
I898
sa(dp2237
g6
F21.874733448028564
sg7
I1125
sa(dp2238
g6
F21.903377771377563
sg7
I0
sa(dp2239
g6
F21.932159423828125
sg7
I432
sa(dp2240
g6
F21.966513872146606
sg7
I-174
sa(dp2241
g6
F21.997690916061401
sg7
I0
sa(dp2242
g6
F22.027103900909424
sg7
I433
sa(dp2243
g6
F22.057780027389526
sg7
I0
sa(dp2244
g6
F22.090280771255493
sg7
I0
sa(dp2245
g6
F22.124003887176514
sg7
I623
sa(dp2246
g6
F22.152671337127686
sg7
I585
sa(dp2247
g6
F22.178922414779663
sg7
I716
sa(dp2248
g6
F22.210285902023315
sg7
I0
sa(dp2249
g6
F22.247118234634399
sg7
I184
sa(dp2250
g6
F22.288869380950928
sg7
I635
sa(dp2251
g6
F22.326258897781372
sg7
I359
sa(dp2252
g6
F22.356395483016968
sg7
I0
sa(dp2253
g6
F22.388447523117065
sg7
I-677
sa(dp2254
g6
F22.420872449874878
sg7
I0
sa(dp2255
g6
F22.464627027511597
sg7
I0
sa(dp2256
g6
F22.505203008651733
sg7
I-1076
sa(dp2257
g6
F22.530843019485474
sg7
I0
sa(dp2258
g6
F22.56212592124939
sg7
I0
sa(dp2259
g6
F22.594627380371094
sg7
I532
sa(dp2260
g6
F22.630903005599976
sg7
I0
sa(dp2261
g6
F22.666510820388794
sg7
I0
sa(dp2262
g6
F22.695385932922363
sg7
I0
sa(dp2263
g6
F22.727206468582153
sg7
I450
sa(dp2264
g6
F22.769570350646973
sg7
I345
sa(dp2265
g6
F22.812135934829712
sg7
I123
sa(dp2266
g6
F22.840842962265015
sg7
I282
sa(dp2267
g6
F22.876510381698608
sg7
I0
sa(dp2268
g6
F22.91463828086853
sg7
I-531
sa(dp2269
g6
F22.942707300186157
sg7
I0
sa(dp2270
g6
F22.978996515274048
sg7
I0
sa(dp2271
g6
F23.018435716629028
sg7
I0
sa(dp2272
g6
F23.05156397819519
sg7
I0
sa(dp2273
g6
F23.091508388519287
sg7
I0
sa(dp2274
g6
F23.133970499038696
sg7
I0
sa(dp2275
g6
F23.175802946090698
sg7
I0
sa(dp2276
g6
F23.210792303085327
sg7
I-183
sa(dp2277
g6
F23.239542484283447
sg7
I109
sa(dp2278
g6
F23.278940916061401
sg7
I0
sa(dp2279
g6
F23.315238237380981
sg7
I0
sa(dp2280
g6
F23.350282430648804
sg7
I0
sa(dp2281
g6
F23.388603448867798
sg7
I-387
sa(dp2282
g6
F23.416716337203979
sg7
I-609
sa(dp2283
g6
F23.452125310897827
sg7
I0
sa(dp2284
g6
F23.493294477462769
sg7
I915
sa(dp2285
g6
F23.530836820602417
sg7
I0
sa(dp2286
g6
F23.566501379013062
sg7
I-255
sa(dp2287
g6
F23.59656023979187
sg7
I0
sa(dp2288
g6
F23.6234290599823
sg7
I1357
sa(dp2289
g6
F23.651423931121826
sg7
I0
sa(dp2290
g6
F23.680192232131958
sg7
I0
sa(dp2291
g6
F23.711431980133057
sg7
I0
sa(dp2292
g6
F23.741453886032104
sg7
I-534
sa(dp2293
g6
F23.766504526138306
sg7
I453
sa(dp2294
g6
F23.805859804153442
sg7
I0
sa(dp2295
g6
F23.848990201950073
sg7
I56
sa(dp2296
g6
F23.878948926925659
sg7
I-39
sa(dp2297
g6
F23.905225515365601
sg7
I547
sa(dp2298
g6
F23.936502933502197
sg7
I0
sa(dp2299
g6
F23.967726469039917
sg7
I0
sa(dp2300
g6
F23.998992204666138
sg7
I0
sa(dp2301
g6
F24.030242204666138
sg7
I-188
sa(dp2302
g6
F24.059801816940308
sg7
I723
sa(dp2303
g6
F24.094142913818359
sg7
I0
sa(dp2304
g6
F24.13018536567688
sg7
I0
sa(dp2305
g6
F24.161453008651733
sg7
I0
sa(dp2306
g6
F24.18770694732666
sg7
I0
sa(dp2307
g6
F24.21396279335022
sg7
I0
sa(dp2308
g6
F24.250906229019165
sg7
I0
sa(dp2309
g6
F24.291501998901367
sg7
I272
sa(dp2310
g6
F24.326451539993286
sg7
I617
sa(dp2311
g6
F24.35773777961731
sg7
I365
sa(dp2312
g6
F24.393990278244019
sg7
I0
sa(dp2313
g6
F24.430238485336304
sg7
I0
sa(dp2314
g6
F24.461681604385376
sg7
I496
sa(dp2315
g6
F24.49291729927063
sg7
I0
sa(dp2316
g6
F24.523279428482056
sg7
I0
sa(dp2317
g6
F24.553847074508667
sg7
I0
sa(dp2318
g6
F24.585186958312988
sg7
I738
sa(dp2319
g6
F24.617142915725708
sg7
I572
sa(dp2320
g6
F24.648303270339966
sg7
I535
sa(dp2321
g6
F24.691336870193481
sg7
I0
sa(dp2322
g6
F24.731369256973267
sg7
I454
sa(dp2323
g6
F24.760324239730835
sg7
I-11
sa(dp2324
g6
F24.79679536819458
sg7
I0
sa(dp2325
g6
F24.835371732711792
sg7
I546
sa(dp2326
g6
F24.876343011856079
sg7
I-111
sa(dp2327
g6
F24.918834924697876
sg7
I0
sa(dp2328
g6
F24.955063104629517
sg7
I457
sa(dp2329
g6
F24.993764877319336
sg7
I428
sa(dp2330
g6
F25.02753758430481
sg7
I0
sa(dp2331
g6
F25.063772439956665
sg7
I0
sa(dp2332
g6
F25.102516889572144
sg7
I553
sa(dp2333
g6
F25.132666349411011
sg7
I0
sa(dp2334
g6
F25.168311834335327
sg7
I0
sa(dp2335
g6
F25.205105543136597
sg7
I23
sa(dp2336
g6
F25.233940839767456
sg7
I0
sa(dp2337
g6
F25.268921852111816
sg7
I0
sa(dp2338
g6
F25.306398868560791
sg7
I545
sa(dp2339
g6
F25.337659120559692
sg7
I0
sa(dp2340
g6
F25.370097398757935
sg7
I1089
sa(dp2341
g6
F25.406949758529663
sg7
I0
sa(dp2342
g6
F25.43944525718689
sg7
I0
sa(dp2343
g6
F25.469441890716553
sg7
I-192
sa(dp2344
g6
F25.505717515945435
sg7
I0
sa(dp2345
g6
F25.546955823898315
sg7
I0
sa(dp2346
g6
F25.581922769546509
sg7
I-257
sa(dp2347
g6
F25.61260199546814
sg7
I634
sa(dp2348
g6
F25.643929243087769
sg7
I377
sa(dp2349
g6
F25.676472902297974
sg7
I-242
sa(dp2350
g6
F25.710798978805542
sg7
I0
sa(dp2351
g6
F25.738867044448853
sg7
I244
sa(dp2352
g6
F25.767643928527832
sg7
I0
sa(dp2353
g6
F25.803338766098022
sg7
I0
sa(dp2354
g6
F25.83953070640564
sg7
I0
sa(dp2355
g6
F25.868760347366333
sg7
I840
sa(dp2356
g6
F25.899989366531372
sg7
I0
sa(dp2357
g6
F25.93123197555542
sg7
I0
sa(dp2358
g6
F25.96247935295105
sg7
I0
sa(dp2359
g6
F25.993726968765259
sg7
I-101
sa(dp2360
g6
F26.024978399276733
sg7
I0
sa(dp2361
g6
F26.056287527084351
sg7
I0
sa(dp2362
g6
F26.084600687026978
sg7
I633
sa(dp2363
g6
F26.117727518081665
sg7
I0
sa(dp2364
g6
F26.148845911026001
sg7
I637
sa(dp2365
g6
F26.184496402740479
sg7
I80
sa(dp2366
g6
F26.220239877700806
sg7
I0
sa(dp2367
g6
F26.251553773880005
sg7
I0
sa(dp2368
g6
F26.282746553421021
sg7
I0
sa(dp2369
g6
F26.312139987945557
sg7
I0
sa(dp2370
g6
F26.346575498580933
sg7
I750
sa(dp2371
g6
F26.38283896446228
sg7
I0
sa(dp2372
g6
F26.421589136123657
sg7
I0
sa(dp2373
g6
F26.455344915390015
sg7
I-117
sa(dp2374
g6
F26.486596822738647
sg7
I0
sa(dp2375
g6
F26.517798900604248
sg7
I596
sa(dp2376
g6
F26.548973321914673
sg7
I0
sa(dp2377
g6
F26.580251932144165
sg7
I194
sa(dp2378
g6
F26.611542940139771
sg7
I-578
sa(dp2379
g6
F26.642785787582397
sg7
I0
sa(dp2380
g6
F26.674050092697144
sg7
I0
sa(dp2381
g6
F26.705302000045776
sg7
I994
sa(dp2382
g6
F26.736553907394409
sg7
I1057
sa(dp2383
g6
F26.767818927764893
sg7
I-43
sa(dp2384
g6
F26.797210454940796
sg7
I-106
sa(dp2385
g6
F26.831568479537964
sg7
I0
sa(dp2386
g6
F26.862811803817749
sg7
I0
sa(dp2387
g6
F26.889065027236938
sg7
I0
sa(dp2388
g6
F26.920325040817261
sg7
I0
sa(dp2389
g6
F26.951571702957153
sg7
I0
sa(dp2390
g6
F26.982811689376831
sg7
I-183
sa(dp2391
g6
F27.02343487739563
sg7
I0
sa(dp2392
g6
F27.061578989028931
sg7
I0
sa(dp2393
g6
F27.087199926376343
sg7
I0
sa(dp2394
g6
F27.117823839187622
sg7
I282
sa(dp2395
g6
F27.156572818756104
sg7
I0
sa(dp2396
g6
F27.189653873443604
sg7
I0
sa(dp2397
g6
F27.217756032943726
sg7
I-719
sa(dp2398
g6
F27.248221874237061
sg7
I0
sa(dp2399
g6
F27.282530546188354
sg7
I0
sa(dp2400
g6
F27.315774202346802
sg7
I468
sa(dp2401
g6
F27.345224857330322
sg7
I0
sa(dp2402
g6
F27.375906229019165
sg7
I-100
sa(dp2403
g6
F27.409047365188599
sg7
I0
sa(dp2404
g6
F27.439083814620972
sg7
I0
sa(dp2405
g6
F27.476594209671021
sg7
I0
sa(dp2406
g6
F27.512187004089355
sg7
I1104
sa(dp2407
g6
F27.544631481170654
sg7
I271
sa(dp2408
g6
F27.588185548782349
sg7
I533
sa(dp2409
g6
F27.631335973739624
sg7
I415
sa(dp2410
g6
F27.672775030136108
sg7
I0
sa(dp2411
g6
F27.707779407501221
sg7
I0
sa(dp2412
g6
F27.740248918533325
sg7
I829
sa(dp2413
g6
F27.772145986557007
sg7
I0
sa(dp2414
g6
F27.806553602218628
sg7
I22
sa(dp2415
g6
F27.842804431915283
sg7
I0
sa(dp2416
g6
F27.874053955078125
sg7
I40
sa(dp2417
g6
F27.906545877456665
sg7
I256
sa(dp2418
g6
F27.939039468765259
sg7
I0
sa(dp2419
g6
F27.978370904922485
sg7
I0
sa(dp2420
g6
F28.017135381698608
sg7
I0
sa(dp2421
g6
F28.046557903289795
sg7
I235
sa(dp2422
g6
F28.075872421264648
sg7
I0
sa(dp2423
g6
F28.110207319259644
sg7
I0
sa(dp2424
g6
F28.148382425308228
sg7
I0
sa(dp2425
g6
F28.181538820266724
sg7
I541
sa(dp2426
g6
F28.212822198867798
sg7
I741
sa(dp2427
g6
F28.244083404541016
sg7
I538
sa(dp2428
g6
F28.276539087295532
sg7
I279
sa(dp2429
g6
F28.314040899276733
sg7
I-292
sa(dp2430
g6
F28.347827911376953
sg7
I0
sa(dp2431
g6
F28.3765549659729
sg7
I0
sa(dp2432
g6
F28.407766580581665
sg7
I-249
sa(dp2433
g6
F28.439031362533569
sg7
I0
sa(dp2434
g6
F28.470324277877808
sg7
I195
sa(dp2435
g6
F28.501571893692017
sg7
I0
sa(dp2436
g6
F28.532784700393677
sg7
I0
sa(dp2437
g6
F28.566537380218506
sg7
I338
sa(dp2438
g6
F28.59532904624939
sg7
I0
sa(dp2439
g6
F28.6215980052948
sg7
I504
sa(dp2440
g6
F28.652820825576782
sg7
I0
sa(dp2441
g6
F28.684061765670776
sg7
I0
sa(dp2442
g6
F28.716552019119263
sg7
I747
sa(dp2443
g6
F28.753426313400269
sg7
I671
sa(dp2444
g6
F28.794697046279907
sg7
I542
sa(dp2445
g6
F28.831560373306274
sg7
I0
sa(dp2446
g6
F28.860312938690186
sg7
I0
sa(dp2447
g6
F28.894049882888794
sg7
I0
sa(dp2448
g6
F28.925277948379517
sg7
I0
sa(dp2449
g6
F28.956543207168579
sg7
I756
sa(dp2450
g6
F28.987808465957642
sg7
I-475
sa(dp2451
g6
F29.019071817398071
sg7
I459
sa(dp2452
g6
F29.050329446792603
sg7
I0
sa(dp2453
g6
F29.079045057296753
sg7
I0
sa(dp2454
g6
F29.112756490707397
sg7
I0
sa(dp2455
g6
F29.144031286239624
sg7
I0
sa(dp2456
g6
F29.174063444137573
sg7
I0
sa(dp2457
g6
F29.21401047706604
sg7
I-98
sa(dp2458
g6
F29.250219106674194
sg7
I-118
sa(dp2459
g6
F29.275884389877319
sg7
I0
sa(dp2460
g6
F29.301495790481567
sg7
I0
sa(dp2461
g6
F29.327735900878906
sg7
I0
sa(dp2462
g6
F29.357760429382324
sg7
I198
sa(dp2463
g6
F29.39273738861084
sg7
I0
sa(dp2464
g6
F29.423961877822876
sg7
I417
sa(dp2465
g6
F29.450248956680298
sg7
I0
sa(dp2466
g6
F29.48029351234436
sg7
I0
sa(dp2467
g6
F29.515280485153198
sg7
I724
sa(dp2468
g6
F29.54654335975647
sg7
I0
sa(dp2469
g6
F29.577756881713867
sg7
I0
sa(dp2470
g6
F29.608957529067993
sg7
I279
sa(dp2471
g6
F29.635271787643433
sg7
I0
sa(dp2472
g6
F29.666559457778931
sg7
I0
sa(dp2473
g6
F29.697921991348267
sg7
I412
sa(dp2474
g6
F29.726698398590088
sg7
I0
sa(dp2475
g6
F29.76033091545105
sg7
I0
sa(dp2476
g6
F29.79276442527771
sg7
I620
sa(dp2477
g6
F29.819613933563232
sg7
I0
sa(dp2478
g6
F29.849681377410889
sg7
I373
sa(dp2479
g6
F29.885313749313354
sg7
I0
sa(dp2480
g6
F29.921132802963257
sg7
I213
sa(dp2481
g6
F29.956717252731323
sg7
I-345
sa(dp2482
g6
F29.987783193588257
sg7
I119
sa(dp2483
g6
F30.019499063491821
sg7
I59
sa(dp2484
g6
F30.065109968185425
sg7
I0
sa(dp2485
g6
F30.105304956436157
sg7
I0
sa(dp2486
g6
F30.131520986557007
sg7
I0
sa(dp2487
g6
F30.16272234916687
sg7
I-24
sa(dp2488
g6
F30.197767496109009
sg7
I0
sa(dp2489
g6
F30.227807760238647
sg7
I0
sa(dp2490
g6
F30.254046201705933
sg7
I0
sa(dp2491
g6
F30.285300493240356
sg7
I359
sa(dp2492
g6
F30.319050550460815
sg7
I0
sa(dp2493
g6
F30.347771406173706
sg7
I0
sa(dp2494
g6
F30.384018898010254
sg7
I0
sa(dp2495
g6
F30.42029595375061
sg7
I0
sa(dp2496
g6
F30.45156455039978
sg7
I0
sa(dp2497
g6
F30.482793569564819
sg7
I0
sa(dp2498
g6
F30.514000415802002
sg7
I0
sa(dp2499
g6
F30.545271396636963
sg7
I0
sa(dp2500
g6
F30.576522350311279
sg7
I0
sa(dp2501
g6
F30.607136487960815
sg7
I0
sa(dp2502
g6
F30.637806415557861
sg7
I0
sa(dp2503
g6
F30.684056520462036
sg7
I0
sa(dp2504
g6
F30.728413343429565
sg7
I0
sa(dp2505
g6
F30.757766008377075
sg7
I0
sa(dp2506
g6
F30.783995389938354
sg7
I611
sa(dp2507
g6
F30.815274000167847
sg7
I-183
sa(dp2508
g6
F30.846553087234497
sg7
I0
sa(dp2509
g6
F30.880295515060425
sg7
I0
sa(dp2510
g6
F30.919043779373169
sg7
I285
sa(dp2511
g6
F30.950270414352417
sg7
I0
sa(dp2512
g6
F30.981970548629761
sg7
I-548
sa(dp2513
g6
F31.016362905502319
sg7
I0
sa(dp2514
g6
F31.045325994491577
sg7
I0
sa(dp2515
g6
F31.076619386672974
sg7
I70
sa(dp2516
g6
F31.107816934585571
sg7
I276
sa(dp2517
g6
F31.134031057357788
sg7
I-287
sa(dp2518
g6
F31.165309429168701
sg7
I0
sa(dp2519
g6
F31.201120853424072
sg7
I0
sa(dp2520
g6
F31.231790781021118
sg7
I0
sa(dp2521
g6
F31.257861852645874
sg7
I1167
sa(dp2522
g6
F31.289057970046997
sg7
I0
sa(dp2523
g6
F31.324050426483154
sg7
I0
sa(dp2524
g6
F31.35899806022644
sg7
I0
sa(dp2525
g6
F31.3902747631073
sg7
I0
sa(dp2526
g6
F31.416620969772339
sg7
I-273
sa(dp2527
g6
F31.445348978042603
sg7
I0
sa(dp2528
g6
F31.474039316177368
sg7
I720
sa(dp2529
g6
F31.509634256362915
sg7
I0
sa(dp2530
g6
F31.545268297195435
sg7
I0
sa(dp2531
g6
F31.576563835144043
sg7
I0
sa(dp2532
g6
F31.607807397842407
sg7
I0
sa(dp2533
g6
F31.637180805206299
sg7
I0
sa(dp2534
g6
F31.669678926467896
sg7
I0
sa(dp2535
g6
F31.699225187301636
sg7
I0
sa(dp2536
g6
F31.726697444915771
sg7
I556
sa(dp2537
g6
F31.755321741104126
sg7
I269
sa(dp2538
g6
F31.787851810455322
sg7
I0
sa(dp2539
g6
F31.819012403488159
sg7
I0
sa(dp2540
g6
F31.845266819000244
sg7
I0
sa(dp2541
g6
F31.87658429145813
sg7
I627
sa(dp2542
g6
F31.907797574996948
sg7
I0
sa(dp2543
g6
F31.937796354293823
sg7
I640
sa(dp2544
g6
F31.972914457321167
sg7
I33
sa(dp2545
g6
F32.002290010452271
sg7
I0
sa(dp2546
g6
F32.02971339225769
sg7
I0
sa(dp2547
g6
F32.064001321792603
sg7
I0
sa(dp2548
g6
F32.095276594161987
sg7
I-31
sa(dp2549
g6
F32.126617908477783
sg7
I0
sa(dp2550
g6
F32.157885313034058
sg7
I-84
sa(dp2551
g6
F32.189077854156494
sg7
I0
sa(dp2552
g6
F32.220293283462524
sg7
I-338
sa(dp2553
g6
F32.250931024551392
sg7
I0
sa(dp2554
g6
F32.281584978103638
sg7
I762
sa(dp2555
g6
F32.312820911407471
sg7
I-192
sa(dp2556
g6
F32.347843885421753
sg7
I0
sa(dp2557
g6
F32.377848863601685
sg7
I0
sa(dp2558
g6
F32.404013395309448
sg7
I0
sa(dp2559
g6
F32.435248851776123
sg7
I0
sa(dp2560
g6
F32.466586351394653
sg7
I626
sa(dp2561
g6
F32.497293472290039
sg7
I0
sa(dp2562
g6
F32.53281044960022
sg7
I0
sa(dp2563
g6
F32.570297479629517
sg7
I-92
sa(dp2564
g6
F32.606602430343628
sg7
I0
sa(dp2565
g6
F32.647764444351196
sg7
I0
sa(dp2566
g6
F32.68529486656189
sg7
I0
sa(dp2567
g6
F32.71406888961792
sg7
I0
sa(dp2568
g6
F32.742807388305664
sg7
I0
sa(dp2569
g6
F32.769027948379517
sg7
I0
sa(dp2570
g6
F32.800272226333618
sg7
I-223
sa(dp2571
g6
F32.831568479537964
sg7
I0
sa(dp2572
g6
F32.862783432006836
sg7
I0
sa(dp2573
g6
F32.893972396850586
sg7
I60
sa(dp2574
g6
F32.925207853317261
sg7
I0
sa(dp2575
g6
F32.961525440216064
sg7
I0
sa(dp2576
g6
F32.997835874557495
sg7
I0
sa(dp2577
g6
F33.029036283493042
sg7
I0
sa(dp2578
g6
F33.057796478271484
sg7
I199
sa(dp2579
g6
F33.090287446975708
sg7
I420
sa(dp2580
g6
F33.120280504226685
sg7
I0
sa(dp2581
g6
F33.149097204208374
sg7
I0
sa(dp2582
g6
F33.182826280593872
sg7
I0
sa(dp2583
g6
F33.214020013809204
sg7
I-34
sa(dp2584
g6
F33.250286817550659
sg7
I0
sa(dp2585
g6
F33.286592960357666
sg7
I448
sa(dp2586
g6
F33.317828416824341
sg7
I0
sa(dp2587
g6
F33.354021787643433
sg7
I0
sa(dp2588
g6
F33.390261888504028
sg7
I451
sa(dp2589
g6
F33.421576499938965
sg7
I0
sa(dp2590
g6
F33.452789545059204
sg7
I733
sa(dp2591
g6
F33.483966588973999
sg7
I0
sa(dp2592
g6
F33.515273332595825
sg7
I0
sa(dp2593
g6
F33.546595335006714
sg7
I0
sa(dp2594
g6
F33.575962781906128
sg7
I0
sa(dp2595
g6
F33.610260963439941
sg7
I0
sa(dp2596
g6
F33.641577005386353
sg7
I201
sa(dp2597
g6
F33.667793989181519
sg7
I0
sa(dp2598
g6
F33.699621915817261
sg7
I-550
sa(dp2599
g6
F33.741564989089966
sg7
I0
sa(dp2600
g6
F33.790366888046265
sg7
I0
sa(dp2601
g6
F33.829054355621338
sg7
I1001
sa(dp2602
g6
F33.855306386947632
sg7
I0
sa(dp2603
g6
F33.881592512130737
sg7
I0
sa(dp2604
g6
F33.912828922271729
sg7
I0
sa(dp2605
g6
F33.944117784500122
sg7
I0
sa(dp2606
g6
F33.975383043289185
sg7
I620
sa(dp2607
g6
F34.006585359573364
sg7
I0
sa(dp2608
g6
F34.037802934646606
sg7
I370
sa(dp2609
g6
F34.06911301612854
sg7
I-1071
sa(dp2610
g6
F34.100404500961304
sg7
I459
sa(dp2611
g6
F34.136639356613159
sg7
I0
sa(dp2612
g6
F34.172878503799438
sg7
I306
sa(dp2613
g6
F34.20414137840271
sg7
I122
sa(dp2614
g6
F34.232079982757568
sg7
I-283
sa(dp2615
g6
F34.264541387557983
sg7
I0
sa(dp2616
g6
F34.297855138778687
sg7
I0
sa(dp2617
g6
F34.326624393463135
sg7
I7
sa(dp2618
g6
F34.357877492904663
sg7
I0
sa(dp2619
g6
F34.389163255691528
sg7
I0
sa(dp2620
g6
F34.420441389083862
sg7
I477
sa(dp2621
g6
F34.449764490127563
sg7
I0
sa(dp2622
g6
F34.485390901565552
sg7
I0
sa(dp2623
g6
F34.522894382476807
sg7
I0
sa(dp2624
g6
F34.552270412445068
sg7
I0
sa(dp2625
g6
F34.582873344421387
sg7
I0
sa(dp2626
g6
F34.615380525588989
sg7
I0
sa(dp2627
g6
F34.646623373031616
sg7
I0
sa(dp2628
g6
F34.677878379821777
sg7
I0
sa(dp2629
g6
F34.709136009216309
sg7
I-112
sa(dp2630
g6
F34.740397930145264
sg7
I-425
sa(dp2631
g6
F34.774203062057495
sg7
I0
sa(dp2632
g6
F34.802913427352905
sg7
I115
sa(dp2633
g6
F34.834081411361694
sg7
I0
sa(dp2634
g6
F34.865385770797729
sg7
I632
sa(dp2635
g6
F34.897112369537354
sg7
I0
sa(dp2636
g6
F34.928289413452148
sg7
I0
sa(dp2637
g6
F34.959097862243652
sg7
I0
sa(dp2638
g6
F34.990387916564941
sg7
I0
sa(dp2639
g6
F35.021643400192261
sg7
I0
sa(dp2640
g6
F35.057250738143921
sg7
I0
sa(dp2641
g6
F35.092861890792847
sg7
I183
sa(dp2642
g6
F35.124123334884644
sg7
I637
sa(dp2643
g6
F35.155375957489014
sg7
I0
sa(dp2644
g6
F35.186618566513062
sg7
I0
sa(dp2645
g6
F35.217875003814697
sg7
I-339
sa(dp2646
g6
F35.249089956283569
sg7
I0
sa(dp2647
g6
F35.280320405960083
sg7
I0
sa(dp2648
g6
F35.313476800918579
sg7
I0
sa(dp2649
g6
F35.346619367599487
sg7
I0
sa(dp2650
g6
F35.382850885391235
sg7
I0
sa(dp2651
g6
F35.414089918136597
sg7
I0
sa(dp2652
g6
F35.445369958877563
sg7
I0
sa(dp2653
g6
F35.47663426399231
sg7
I443
sa(dp2654
g6
F35.505982398986816
sg7
I0
sa(dp2655
g6
F35.535356760025024
sg7
I0
sa(dp2656
g6
F35.561625719070435
sg7
I0
sa(dp2657
g6
F35.592865705490112
sg7
I0
sa(dp2658
g6
F35.624096870422363
sg7
I0
sa(dp2659
g6
F35.655324697494507
sg7
I367
sa(dp2660
g6
F35.686590909957886
sg7
I739
sa(dp2661
g6
F35.715335845947266
sg7
I0
sa(dp2662
g6
F35.749084711074829
sg7
I0
sa(dp2663
g6
F35.78037428855896
sg7
I0
sa(dp2664
g6
F35.811641454696655
sg7
I0
sa(dp2665
g6
F35.842869520187378
sg7
I484
sa(dp2666
g6
F35.87849497795105
sg7
I0
sa(dp2667
g6
F35.917245388031006
sg7
I0
sa(dp2668
g6
F35.946615934371948
sg7
I0
sa(dp2669
g6
F35.977844953536987
sg7
I532
sa(dp2670
g6
F36.009535312652588
sg7
I286
sa(dp2671
g6
F36.040146112442017
sg7
I159
sa(dp2672
g6
F36.070327997207642
sg7
I0
sa(dp2673
g6
F36.10158896446228
sg7
I0
sa(dp2674
g6
F36.137899875640869
sg7
I0
sa(dp2675
g6
F36.173490285873413
sg7
I0
sa(dp2676
g6
F36.204065561294556
sg7
I0
sa(dp2677
g6
F36.23284125328064
sg7
I0
sa(dp2678
g6
F36.26658296585083
sg7
I0
sa(dp2679
g6
F36.297839403152466
sg7
I0
sa(dp2680
g6
F36.326101541519165
sg7
I0
sa(dp2681
g6
F36.359221935272217
sg7
I-240
sa(dp2682
g6
F36.390350818634033
sg7
I0
sa(dp2683
g6
F36.419726133346558
sg7
I0
sa(dp2684
g6
F36.451590776443481
sg7
I0
sa(dp2685
g6
F36.485347509384155
sg7
I0
sa(dp2686
g6
F36.516565561294556
sg7
I0
sa(dp2687
g6
F36.54156231880188
sg7
I372
sa(dp2688
g6
F36.571593999862671
sg7
I0
sa(dp2689
g6
F36.602940797805786
sg7
I548
sa(dp2690
g6
F36.634194374084473
sg7
I-371
sa(dp2691
g6
F36.665341377258301
sg7
I0
sa(dp2692
g6
F36.696579933166504
sg7
I0
sa(dp2693
g6
F36.727808475494385
sg7
I0
sa(dp2694
g6
F36.757234811782837
sg7
I0
sa(dp2695
g6
F36.791613817214966
sg7
I0
sa(dp2696
g6
F36.8228600025177
sg7
I0
sa(dp2697
g6
F36.849075078964233
sg7
I638
sa(dp2698
g6
F36.889703512191772
sg7
I0
sa(dp2699
g6
F36.930360555648804
sg7
I0
sa(dp2700
g6
F36.9609694480896
sg7
I0
sa(dp2701
g6
F36.994690895080566
sg7
I0
sa(dp2702
g6
F37.024081945419312
sg7
I0
sa(dp2703
g6
F37.055383920669556
sg7
I0
sa(dp2704
g6
F37.086657762527466
sg7
I0
sa(dp2705
g6
F37.117877960205078
sg7
I-102
sa(dp2706
g6
F37.149073362350464
sg7
I0
sa(dp2707
g6
F37.180330514907837
sg7
I157
sa(dp2708
g6
F37.211607217788696
sg7
I0
sa(dp2709
g6
F37.242843866348267
sg7
I287
sa(dp2710
g6
F37.274094343185425
sg7
I0
sa(dp2711
g6
F37.305371522903442
sg7
I0
sa(dp2712
g6
F37.336619853973389
sg7
I622
sa(dp2713
g6
F37.365955829620361
sg7
I0
sa(dp2714
g6
F37.400310754776001
sg7
I0
sa(dp2715
g6
F37.431572437286377
sg7
I0
sa(dp2716
g6
F37.457840442657471
sg7
I-512
sa(dp2717
g6
F37.484106779098511
sg7
I0
sa(dp2718
g6
F37.510346412658691
sg7
I0
sa(dp2719
g6
F37.54159688949585
sg7
I0
sa(dp2720
g6
F37.575955629348755
sg7
I0
sa(dp2721
g6
F37.605509996414185
sg7
I0
sa(dp2722
g6
F37.636780977249146
sg7
I0
sa(dp2723
g6
F37.66782546043396
sg7
I0
sa(dp2724
g6
F37.69907283782959
sg7
I0
sa(dp2725
g6
F37.730356931686401
sg7
I0
sa(dp2726
g6
F37.76784348487854
sg7
I0
sa(dp2727
g6
F37.80534291267395
sg7
I0
sa(dp2728
g6
F37.831583261489868
sg7
I0
sa(dp2729
g6
F37.862823486328125
sg7
I378
sa(dp2730
g6
F37.894092798233032
sg7
I0
sa(dp2731
g6
F37.925352334976196
sg7
I0
sa(dp2732
g6
F37.956605434417725
sg7
I101
sa(dp2733
g6
F37.985983610153198
sg7
I370
sa(dp2734
g6
F38.02036190032959
sg7
I0
sa(dp2735
g6
F38.051606416702271
sg7
I0
sa(dp2736
g6
F38.082843065261841
sg7
I0
sa(dp2737
g6
F38.11404824256897
sg7
I0
sa(dp2738
g6
F38.14530086517334
sg7
I0
sa(dp2739
g6
F38.190953016281128
sg7
I0
sa(dp2740
g6
F38.231538534164429
sg7
I0
sa(dp2741
g6
F38.257800340652466
sg7
I0
sa(dp2742
g6
F38.287271738052368
sg7
I464
sa(dp2743
g6
F38.319779396057129
sg7
I531
sa(dp2744
g6
F38.354094505310059
sg7
I368
sa(dp2745
g6
F38.384090900421143
sg7
I0
sa(dp2746
g6
F38.414092302322388
sg7
I0
sa(dp2747
g6
F38.44535756111145
sg7
I0
sa(dp2748
g6
F38.476590394973755
sg7
I0
sa(dp2749
g6
F38.5128173828125
sg7
I0
sa(dp2750
g6
F38.549037933349609
sg7
I370
sa(dp2751
g6
F38.58028769493103
sg7
I278
sa(dp2752
g6
F38.611539363861084
sg7
I638
sa(dp2753
g6
F38.642749547958374
sg7
I34
sa(dp2754
g6
F38.674024343490601
sg7
I0
sa(dp2755
g6
F38.70979380607605
sg7
I0
sa(dp2756
g6
F38.745323896408081
sg7
I0
sa(dp2757
g6
F38.776580333709717
sg7
I0
sa(dp2758
g6
F38.807835817337036
sg7
I0
sa(dp2759
g6
F38.839066982269287
sg7
I0
sa(dp2760
g6
F38.87549090385437
sg7
I0
sa(dp2761
g6
F38.911762475967407
sg7
I373
sa(dp2762
g6
F38.942824840545654
sg7
I0
sa(dp2763
g6
F38.98904824256897
sg7
I0
sa(dp2764
g6
F39.030303001403809
sg7
I194
sa(dp2765
g6
F39.056549787521362
sg7
I0
sa(dp2766
g6
F39.087787866592407
sg7
I183
sa(dp2767
g6
F39.119041204452515
sg7
I0
sa(dp2768
g6
F39.150301933288574
sg7
I0
sa(dp2769
g6
F39.181586503982544
sg7
I-278
sa(dp2770
g6
F39.211611032485962
sg7
I-70
sa(dp2771
g6
F39.247837781906128
sg7
I0
sa(dp2772
g6
F39.28533673286438
sg7
I0
sa(dp2773
g6
F39.318452596664429
sg7
I0
sa(dp2774
g6
F39.346552610397339
sg7
I0
sa(dp2775
g6
F39.377813100814819
sg7
I0
sa(dp2776
g6
F39.409095048904419
sg7
I0
sa(dp2777
g6
F39.440340995788574
sg7
I441
sa(dp2778
g6
F39.471585988998413
sg7
I-861
sa(dp2779
g6
F39.50283408164978
sg7
I636
sa(dp2780
g6
F39.534083843231201
sg7
I0
sa(dp2781
g6
F39.565339326858521
sg7
I0
sa(dp2782
g6
F39.601592302322388
sg7
I-689
sa(dp2783
g6
F39.637830495834351
sg7
I0
sa(dp2784
g6
F39.669048547744751
sg7
I50
sa(dp2785
g6
F39.700307369232178
sg7
I842
sa(dp2786
g6
F39.731556415557861
sg7
I0
sa(dp2787
g6
F39.762807369232178
sg7
I745
sa(dp2788
g6
F39.79720139503479
sg7
I-250
sa(dp2789
g6
F39.837713003158569
sg7
I543
sa(dp2790
g6
F39.875224351882935
sg7
I0
sa(dp2791
g6
F39.906574487686157
sg7
I0
sa(dp2792
g6
F39.937822103500366
sg7
I0
sa(dp2793
g6
F39.969069957733154
sg7
I0
sa(dp2794
g6
F40.000308275222778
sg7
I-111
sa(dp2795
g6
F40.031571388244629
sg7
I548
sa(dp2796
g6
F40.062806844711304
sg7
I0
sa(dp2797
g6
F40.089050531387329
sg7
I0
sa(dp2798
g6
F40.120327711105347
sg7
I0
sa(dp2799
g6
F40.151580095291138
sg7
I0
sa(dp2800
g6
F40.188444375991821
sg7
I0
sa(dp2801
g6
F40.225363492965698
sg7
I0
sa(dp2802
g6
F40.256617307662964
sg7
I-81
sa(dp2803
g6
F40.300959348678589
sg7
I0
sa(dp2804
g6
F40.345305442810059
sg7
I0
sa(dp2805
g6
F40.385301828384399
sg7
I0
sa(dp2806
g6
F40.420331954956055
sg7
I0
sa(dp2807
g6
F40.45157790184021
sg7
I0
sa(dp2808
g6
F40.482819795608521
sg7
I-261
sa(dp2809
g6
F40.514069795608521
sg7
I0
sa(dp2810
g6
F40.547831296920776
sg7
I0
sa(dp2811
g6
F40.576572418212891
sg7
I0
sa(dp2812
g6
F40.607193946838379
sg7
I0
sa(dp2813
g6
F40.637816905975342
sg7
I0
sa(dp2814
g6
F40.669011831283569
sg7
I0
sa(dp2815
g6
F40.700290441513062
sg7
I-714
sa(dp2816
g6
F40.731584310531616
sg7
I0
sa(dp2817
g6
F40.762781381607056
sg7
I0
sa(dp2818
g6
F40.79402494430542
sg7
I0
sa(dp2819
g6
F40.825321912765503
sg7
I0
sa(dp2820
g6
F40.854082822799683
sg7
I104
sa(dp2821
g6
F40.892803907394409
sg7
I0
sa(dp2822
g6
F40.92900538444519
sg7
I-126
sa(dp2823
g6
F40.960261583328247
sg7
I297
sa(dp2824
g6
F40.991550445556641
sg7
I0
sa(dp2825
g6
F41.022811412811279
sg7
I0
sa(dp2826
g6
F41.052185297012329
sg7
I0
sa(dp2827
g6
F41.081555366516113
sg7
I166
sa(dp2828
g6
F41.112811803817749
sg7
I0
sa(dp2829
g6
F41.139066457748413
sg7
I0
sa(dp2830
g6
F41.170335531234741
sg7
I0
sa(dp2831
g6
F41.201593399047852
sg7
I0
sa(dp2832
g6
F41.237189531326294
sg7
I0
sa(dp2833
g6
F41.275923490524292
sg7
I0
sa(dp2834
g6
F41.305306434631348
sg7
I0
sa(dp2835
g6
F41.336555480957031
sg7
I0
sa(dp2836
g6
F41.367867946624756
sg7
I0
sa(dp2837
g6
F41.399126291275024
sg7
I0
sa(dp2838
g6
F41.430328845977783
sg7
I0
sa(dp2839
g6
F41.464698553085327
sg7
I0
sa(dp2840
g6
F41.504071474075317
sg7
I0
sa(dp2841
g6
F41.53532886505127
sg7
I0
sa(dp2842
g6
F41.561560392379761
sg7
I0
sa(dp2843
g6
F41.592838048934937
sg7
I0
sa(dp2844
g6
F41.624155282974243
sg7
I0
sa(dp2845
g6
F41.655397176742554
sg7
I983
sa(dp2846
g6
F41.687086820602417
sg7
I303
sa(dp2847
g6
F41.718379259109497
sg7
I0
sa(dp2848
g6
F41.749194860458374
sg7
I0
sa(dp2849
g6
F41.780463457107544
sg7
I113
sa(dp2850
g6
F41.811699390411377
sg7
I452
sa(dp2851
g6
F41.842902898788452
sg7
I0
sa(dp2852
g6
F41.872282266616821
sg7
I0
sa(dp2853
g6
F41.896704435348511
sg7
I0
sa(dp2854
g6
F41.922948837280273
sg7
I0
sa(dp2855
g6
F41.954186677932739
sg7
I921
sa(dp2856
g6
F41.985440015792847
sg7
I0
sa(dp2857
g6
F42.016644477844238
sg7
I-579
sa(dp2858
g6
F42.057287454605103
sg7
I0
sa(dp2859
g6
F42.097906827926636
sg7
I0
sa(dp2860
g6
F42.129157781600952
sg7
I544
sa(dp2861
g6
F42.155445337295532
sg7
I282
sa(dp2862
g6
F42.186698913574219
sg7
I0
sa(dp2863
g6
F42.221072435379028
sg7
I0
sa(dp2864
g6
F42.250427484512329
sg7
I0
sa(dp2865
g6
F42.280428409576416
sg7
I0
sa(dp2866
g6
F42.31542444229126
sg7
I0
sa(dp2867
g6
F42.35167384147644
sg7
I0
sa(dp2868
g6
F42.382935762405396
sg7
I0
sa(dp2869
g6
F42.414171934127808
sg7
I0
sa(dp2870
g6
F42.445420503616333
sg7
I0
sa(dp2871
g6
F42.476685285568237
sg7
I0
sa(dp2872
g6
F42.50794243812561
sg7
I0
sa(dp2873
g6
F42.53917384147644
sg7
I0
sa(dp2874
g6
F42.570400953292847
sg7
I-362
sa(dp2875
g6
F42.597868204116821
sg7
I545
sa(dp2876
g6
F42.630396842956543
sg7
I0
sa(dp2877
g6
F42.661672830581665
sg7
I837
sa(dp2878
g6
F42.692889928817749
sg7
I0
sa(dp2879
g6
F42.726114988327026
sg7
I834
sa(dp2880
g6
F42.754269361495972
sg7
I0
sa(dp2881
g6
F42.785439968109131
sg7
I591
sa(dp2882
g6
F42.816685914993286
sg7
I0
sa(dp2883
g6
F42.847925424575806
sg7
I285
sa(dp2884
g6
F42.87917160987854
sg7
I-175
sa(dp2885
g6
F42.910391092300415
sg7
I0
sa(dp2886
g6
F42.941657781600952
sg7
I0
sa(dp2887
g6
F42.972978353500366
sg7
I0
sa(dp2888
g6
F43.004234552383423
sg7
I0
sa(dp2889
g6
F43.035395860671997
sg7
I0
sa(dp2890
g6
F43.066640853881836
sg7
I0
sa(dp2891
g6
F43.097914934158325
sg7
I0
sa(dp2892
g6
F43.128478288650513
sg7
I0
sa(dp2893
g6
F43.157238960266113
sg7
I-17
sa(dp2894
g6
F43.191669940948486
sg7
I0
sa(dp2895
g6
F43.222905874252319
sg7
I-102
sa(dp2896
g6
F43.254155874252319
sg7
I0
sa(dp2897
g6
F43.286652326583862
sg7
I0
sa(dp2898
g6
F43.314119338989258
sg7
I0
sa(dp2899
g6
F43.345369338989258
sg7
I0
sa(dp2900
g6
F43.376652002334595
sg7
I369
sa(dp2901
g6
F43.406646966934204
sg7
I0
sa(dp2902
g6
F43.436644792556763
sg7
I0
sa(dp2903
g6
F43.467901468276978
sg7
I0
sa(dp2904
g6
F43.499135732650757
sg7
I0
sa(dp2905
g6
F43.530402898788452
sg7
I0
sa(dp2906
g6
F43.561657905578613
sg7
I0
sa(dp2907
g6
F43.59290337562561
sg7
I0
sa(dp2908
g6
F43.624174833297729
sg7
I0
sa(dp2909
g6
F43.655421018600464
sg7
I0
sa(dp2910
g6
F43.687983274459839
sg7
I0
sa(dp2911
g6
F43.719229459762573
sg7
I148
sa(dp2912
g6
F43.754153966903687
sg7
I0
sa(dp2913
g6
F43.790410280227661
sg7
I0
sa(dp2914
g6
F43.824159383773804
sg7
I0
sa(dp2915
g6
F43.852916479110718
sg7
I0
sa(dp2916
g6
F43.884156942367554
sg7
I0
sa(dp2917
g6
F43.914133787155151
sg7
I0
sa(dp2918
g6
F43.944113492965698
sg7
I303
sa(dp2919
g6
F43.975378274917603
sg7
I0
sa(dp2920
g6
F44.003646612167358
sg7
I0
sa(dp2921
g6
F44.036776304244995
sg7
I519
sa(dp2922
g6
F44.067915201187134
sg7
I0
sa(dp2923
g6
F44.097284078598022
sg7
I0
sa(dp2924
g6
F44.124781370162964
sg7
I-187
sa(dp2925
g6
F44.154143810272217
sg7
I0
sa(dp2926
g6
F44.185363054275513
sg7
I0
sa(dp2927
g6
F44.216628313064575
sg7
I0
sa(dp2928
g6
F44.24791407585144
sg7
I0
sa(dp2929
g6
F44.279156446456909
sg7
I432
sa(dp2930
g6
F44.311598300933838
sg7
I0
sa(dp2931
g6
F44.339075803756714
sg7
I0
sa(dp2932
g6
F44.370376825332642
sg7
I0
sa(dp2933
g6
F44.401681900024414
sg7
I0
sa(dp2934
g6
F44.431683778762817
sg7
I0
sa(dp2935
g6
F44.461633920669556
sg7
I0
sa(dp2936
g6
F44.487862825393677
sg7
I0
sa(dp2937
g6
F44.51911735534668
sg7
I0
sa(dp2938
g6
F44.555441379547119
sg7
I0
sa(dp2939
g6
F44.586700439453125
sg7
I0
sa(dp2940
g6
F44.617891550064087
sg7
I0
sa(dp2941
g6
F44.649134397506714
sg7
I0
sa(dp2942
g6
F44.680350065231323
sg7
I0
sa(dp2943
g6
F44.710973501205444
sg7
I699
sa(dp2944
g6
F44.741641759872437
sg7
I0
sa(dp2945
g6
F44.787888288497925
sg7
I0
sa(dp2946
g6
F44.829197883605957
sg7
I0
sa(dp2947
g6
F44.855465412139893
sg7
I0
sa(dp2948
g6
F44.886659860610962
sg7
I0
sa(dp2949
g6
F44.917905330657959
sg7
I0
sa(dp2950
g6
F44.948535442352295
sg7
I0
sa(dp2951
g6
F44.984153985977173
sg7
I0
sa(dp2952
g6
F45.017267465591431
sg7
I0
sa(dp2953
g6
F45.047266244888306
sg7
I0
sa(dp2954
g6
F45.08040452003479
sg7
I0
sa(dp2955
g6
F45.111652851104736
sg7
I0
sa(dp2956
g6
F45.142905473709106
sg7
I-490
sa(dp2957
g6
F45.174156904220581
sg7
I0
sa(dp2958
g6
F45.205402851104736
sg7
I0
sa(dp2959
g6
F45.237079858779907
sg7
I0
sa(dp2960
g6
F45.268499374389648
sg7
I0
sa(dp2961
g6
F45.306195020675659
sg7
I0
sa(dp2962
g6
F45.339166402816772
sg7
I0
sa(dp2963
g6
F45.366662740707397
sg7
I0
sa(dp2964
g6
F45.396620512008667
sg7
I0
sa(dp2965
g6
F45.4304039478302
sg7
I384
sa(dp2966
g6
F45.466702461242676
sg7
I340
sa(dp2967
g6
F45.502907037734985
sg7
I0
sa(dp2968
g6
F45.53415846824646
sg7
I0
sa(dp2969
g6
F45.563506364822388
sg7
I-297
sa(dp2970
g6
F45.597872495651245
sg7
I0
sa(dp2971
g6
F45.629154443740845
sg7
I0
sa(dp2972
g6
F45.655373811721802
sg7
I0
sa(dp2973
g6
F45.68656587600708
sg7
I0
sa(dp2974
g6
F45.717723369598389
sg7
I0
sa(dp2975
g6
F45.748919248580933
sg7
I0
sa(dp2976
g6
F45.780183076858521
sg7
I0
sa(dp2977
g6
F45.811436891555786
sg7
I0
sa(dp2978
g6
F45.84768533706665
sg7
I0
sa(dp2979
g6
F45.883970499038696
sg7
I0
sa(dp2980
g6
F45.915220499038696
sg7
I197
sa(dp2981
g6
F45.943937540054321
sg7
I0
sa(dp2982
g6
F45.977689504623413
sg7
I0
sa(dp2983
g6
F46.00956130027771
sg7
I0
sa(dp2984
g6
F46.036430597305298
sg7
I0
sa(dp2985
g6
F46.062669992446899
sg7
I562
sa(dp2986
g6
F46.093964815139771
sg7
I0
sa(dp2987
g6
F46.13021993637085
sg7
I-1237
sa(dp2988
g6
F46.16142725944519
sg7
I455
sa(dp2989
g6
F46.192686796188354
sg7
I0
sa(dp2990
g6
F46.223933458328247
sg7
I0
sa(dp2991
g6
F46.255174875259399
sg7
I0
sa(dp2992
g6
F46.286435842514038
sg7
I0
sa(dp2993
g6
F46.317696332931519
sg7
I0
sa(dp2994
g6
F46.34893536567688
sg7
I-74
sa(dp2995
g6
F46.380186796188354
sg7
I0
sa(dp2996
g6
F46.411429405212402
sg7
I0
sa(dp2997
g6
F46.442679882049561
sg7
I0
sa(dp2998
g6
F46.483971357345581
sg7
I0
sa(dp2999
g6
F46.52533483505249
sg7
I182
sa(dp3000
g6
F46.56120228767395
sg7
I0
sa(dp3001
g6
F46.596819400787354
sg7
I0
sa(dp3002
g6
F46.627888441085815
sg7
I0
sa(dp3003
g6
F46.659143924713135
sg7
I0
sa(dp3004
g6
F46.690459012985229
sg7
I0
sa(dp3005
g6
F46.721678495407104
sg7
I0
sa(dp3006
g6
F46.752858877182007
sg7
I0
sa(dp3007
g6
F46.784085988998413
sg7
I0
sa(dp3008
g6
F46.820416450500488
sg7
I0
sa(dp3009
g6
F46.857120990753174
sg7
I-112
sa(dp3010
g6
F46.888314962387085
sg7
I0
sa(dp3011
g6
F46.914129495620728
sg7
I-1122
sa(dp3012
g6
F46.945452928543091
sg7
I0
sa(dp3013
g6
F46.976136445999146
sg7
I0
sa(dp3014
g6
F47.006626844406128
sg7
I0
sa(dp3015
g6
F47.037867784500122
sg7
I0
sa(dp3016
g6
F47.07416558265686
sg7
I0
sa(dp3017
g6
F47.110419511795044
sg7
I0
sa(dp3018
g6
F47.141651391983032
sg7
I0
sa(dp3019
g6
F47.172862768173218
sg7
I276
sa(dp3020
g6
F47.204107046127319
sg7
I0
sa(dp3021
g6
F47.235416889190674
sg7
I0
sa(dp3022
g6
F47.26670241355896
sg7
I0
sa(dp3023
g6
F47.29785943031311
sg7
I0
sa(dp3024
g6
F47.32960057258606
sg7
I0
sa(dp3025
g6
F47.360947370529175
sg7
I255
sa(dp3026
g6
F47.391691923141479
sg7
I0
sa(dp3027
g6
F47.422878503799438
sg7
I632
sa(dp3028
g6
F47.454132795333862
sg7
I0
sa(dp3029
g6
F47.485442399978638
sg7
I467
sa(dp3030
g6
F47.516665697097778
sg7
I0
sa(dp3031
g6
F47.547852277755737
sg7
I0
sa(dp3032
g6
F47.584126949310303
sg7
I0
sa(dp3033
g6
F47.619126558303833
sg7
I542
sa(dp3034
g6
F47.649133443832397
sg7
I0
sa(dp3035
g6
F47.68043041229248
sg7
I0
sa(dp3036
g6
F47.708565950393677
sg7
I0
sa(dp3037
g6
F47.741645336151123
sg7
I0
sa(dp3038
g6
F47.772868871688843
sg7
I615
sa(dp3039
g6
F47.804119825363159
sg7
I0
sa(dp3040
g6
F47.835572481155396
sg7
I0
sa(dp3041
g6
F47.868759393692017
sg7
I277
sa(dp3042
g6
F47.90169882774353
sg7
I0
sa(dp3043
g6
F47.931008338928223
sg7
I0
sa(dp3044
g6
F47.965413808822632
sg7
I0
sa(dp3045
g6
F48.007927417755127
sg7
I-358
sa(dp3046
g6
F48.045445919036865
sg7
I0
sa(dp3047
g6
F48.071688413619995
sg7
I0
sa(dp3048
g6
F48.102842569351196
sg7
I0
sa(dp3049
g6
F48.13407301902771
sg7
I0
sa(dp3050
g6
F48.170413255691528
sg7
I0
sa(dp3051
g6
F48.206652402877808
sg7
I0
sa(dp3052
g6
F48.237846374511719
sg7
I0
sa(dp3053
g6
F48.269123315811157
sg7
I0
sa(dp3054
g6
F48.300440073013306
sg7
I0
sa(dp3055
g6
F48.331659555435181
sg7
I0
sa(dp3056
g6
F48.362841844558716
sg7
I0
sa(dp3057
g6
F48.394109487533569
sg7
I0
sa(dp3058
g6
F48.424114942550659
sg7
I0
sa(dp3059
g6
F48.454097509384155
sg7
I0
sa(dp3060
g6
F48.485381841659546
sg7
I0
sa(dp3061
g6
F48.516623258590698
sg7
I0
sa(dp3062
g6
F48.547806978225708
sg7
I-18
sa(dp3063
g6
F48.584069490432739
sg7
I0
sa(dp3064
g6
F48.620378494262695
sg7
I-96
sa(dp3065
g6
F48.65162992477417
sg7
I0
sa(dp3066
g6
F48.682815790176392
sg7
I744
sa(dp3067
g6
F48.717222929000854
sg7
I-101
sa(dp3068
g6
F48.746638059616089
sg7
I0
sa(dp3069
g6
F48.772866010665894
sg7
I0
sa(dp3070
g6
F48.804110288619995
sg7
I528
sa(dp3071
g6
F48.834732294082642
sg7
I0
sa(dp3072
g6
F48.86042857170105
sg7
I0
sa(dp3073
g6
F48.889816522598267
sg7
I488
sa(dp3074
g6
F48.924124002456665
sg7
I0
sa(dp3075
g6
F48.960417032241821
sg7
I0
sa(dp3076
g6
F48.991665363311768
sg7
I0
sa(dp3077
g6
F49.022857427597046
sg7
I0
sa(dp3078
g6
F49.054095029830933
sg7
I463
sa(dp3079
g6
F49.085418939590454
sg7
I-445
sa(dp3080
g6
F49.12123441696167
sg7
I0
sa(dp3081
g6
F49.156797885894775
sg7
I0
sa(dp3082
g6
F49.187923431396484
sg7
I0
sa(dp3083
g6
F49.219202280044556
sg7
I-58
sa(dp3084
g6
F49.250882863998413
sg7
I0
sa(dp3085
g6
F49.281511545181274
sg7
I0
sa(dp3086
g6
F49.311634302139282
sg7
I-526
sa(dp3087
g6
F49.340350866317749
sg7
I614
sa(dp3088
g6
F49.374173879623413
sg7
I0
sa(dp3089
g6
F49.405490398406982
sg7
I0
sa(dp3090
g6
F49.436739444732666
sg7
I0
sa(dp3091
g6
F49.467984437942505
sg7
I0
sa(dp3092
g6
F49.499251842498779
sg7
I105
sa(dp3093
g6
F49.530511379241943
sg7
I-260
sa(dp3094
g6
F49.559228897094727
sg7
I0
sa(dp3095
g6
F49.592938899993896
sg7
I0
sa(dp3096
g6
F49.624177932739258
sg7
I0
sa(dp3097
g6
F49.655495882034302
sg7
I0
sa(dp3098
g6
F49.68669581413269
sg7
I0
sa(dp3099
g6
F49.717970371246338
sg7
I0
sa(dp3100
g6
F49.749662399291992
sg7
I-904
sa(dp3101
g6
F49.780913829803467
sg7
I0
sa(dp3102
g6
F49.811722993850708
sg7
I-371
sa(dp3103
g6
F49.839839220046997
sg7
I0
sa(dp3104
g6
F49.872967481613159
sg7
I543
sa(dp3105
g6
F49.904210805892944
sg7
I0
sa(dp3106
g6
F49.930477857589722
sg7
I628
sa(dp3107
g6
F49.960461854934692
sg7
I0
sa(dp3108
g6
F49.990444421768188
sg7
I0
sasa(dp3109
g2
I153
sg3
(lp3110
(dp3111
g6
F0.17881155014038086
sg7
I3839
sa(dp3112
g6
F0.21070456504821777
sg7
I3728
sa(dp3113
g6
F0.24195456504821777
sg7
I3655
sa(dp3114
g6
F0.27937865257263184
sg7
I3737
sa(dp3115
g6
F0.31626749038696289
sg7
I4078
sa(dp3116
g6
F0.34691762924194336
sg7
I4188
sa(dp3117
g6
F0.37815046310424805
sg7
I4189
sa(dp3118
g6
F0.40942668914794922
sg7
I4190
sa(dp3119
g6
F0.4406740665435791
sg7
I4190
sa(dp3120
g6
F0.47191762924194336
sg7
I4190
sa(dp3121
g6
F0.50316548347473145
sg7
I4188
sa(dp3122
g6
F0.53192329406738281
sg7
I4192
sa(dp3123
g6
F0.56570005416870117
sg7
I4189
sa(dp3124
g6
F0.60194253921508789
sg7
I4187
sa(dp3125
g6
F0.63816690444946289
sg7
I4189
sa(dp3126
g6
F0.66944122314453125
sg7
I4190
sa(dp3127
g6
F0.70076847076416016
sg7
I4188
sa(dp3128
g6
F0.73208808898925781
sg7
I4190
sa(dp3129
g6
F0.76334381103515625
sg7
I4190
sa(dp3130
g6
F0.7932736873626709
sg7
I4189
sa(dp3131
g6
F0.82140207290649414
sg7
I4190
sa(dp3132
g6
F0.85583662986755371
sg7
I4190
sa(dp3133
g6
F0.88707494735717773
sg7
I4188
sa(dp3134
g6
F0.91833353042602539
sg7
I4189
sa(dp3135
g6
F0.94959497451782227
sg7
I4192
sa(dp3136
g6
F0.98084068298339844
sg7
I4189
sa(dp3137
g6
F1.0120887756347656
sg7
I4190
sa(dp3138
g6
F1.0433111190795898
sg7
I4190
sa(dp3139
g6
F1.0745375156402588
sg7
I4190
sa(dp3140
g6
F1.1058135032653809
sg7
I4188
sa(dp3141
g6
F1.1370820999145508
sg7
I4189
sa(dp3142
g6
F1.1687741279602051
sg7
I4188
sa(dp3143
g6
F1.2025201320648193
sg7
I4189
sa(dp3144
g6
F1.2308239936828613
sg7
I4189
sa(dp3145
g6
F1.2620744705200195
sg7
I4187
sa(dp3146
g6
F1.2933282852172852
sg7
I4189
sa(dp3147
g6
F1.3195865154266357
sg7
I4189
sa(dp3148
g6
F1.350806713104248
sg7
I4189
sa(dp3149
g6
F1.3870511054992676
sg7
I4187
sa(dp3150
g6
F1.4264481067657471
sg7
I4125
sa(dp3151
g6
F1.4664459228515625
sg7
I4124
sa(dp3152
g6
F1.5033259391784668
sg7
I4189
sa(dp3153
g6
F1.5345635414123535
sg7
I4126
sa(dp3154
g6
F1.565800666809082
sg7
I4186
sa(dp3155
g6
F1.5970444679260254
sg7
I4131
sa(dp3156
g6
F1.6258115768432617
sg7
I4187
sa(dp3157
g6
F1.6595768928527832
sg7
I4067
sa(dp3158
g6
F1.6908221244812012
sg7
I4126
sa(dp3159
g6
F1.7220797538757324
sg7
I4131
sa(dp3160
g6
F1.7533376216888428
sg7
I4067
sa(dp3161
g6
F1.7826929092407227
sg7
I4016
sa(dp3162
g6
F1.8170320987701416
sg7
I4063
sa(dp3163
g6
F1.8482871055603027
sg7
I4120
sa(dp3164
g6
F1.8745195865631104
sg7
I3996
sa(dp3165
g6
F1.9057931900024414
sg7
I3940
sa(dp3166
g6
F1.937047004699707
sg7
I3959
sa(dp3167
g6
F1.9757530689239502
sg7
I3929
sa(dp3168
g6
F2.0170431137084961
sg7
I3920
sa(dp3169
g6
F2.0458359718322754
sg7
I3926
sa(dp3170
g6
F2.0720815658569336
sg7
I3935
sa(dp3171
g6
F2.1033270359039307
sg7
I3932
sa(dp3172
g6
F2.1370601654052734
sg7
I3921
sa(dp3173
g6
F2.1658129692077637
sg7
I3924
sa(dp3174
g6
F2.1970839500427246
sg7
I3934
sa(dp3175
g6
F2.2270710468292236
sg7
I3920
sa(dp3176
g6
F2.2520256042480469
sg7
I3922
sa(dp3177
g6
F2.2782776355743408
sg7
I3915
sa(dp3178
g6
F2.3095495700836182
sg7
I3918
sa(dp3179
g6
F2.3408081531524658
sg7
I3911
sa(dp3180
g6
F2.3720746040344238
sg7
I3914
sa(dp3181
g6
F2.403315544128418
sg7
I3910
sa(dp3182
g6
F2.4345669746398926
sg7
I3909
sa(dp3183
g6
F2.465796947479248
sg7
I3910
sa(dp3184
g6
F2.4970531463623047
sg7
I3910
sa(dp3185
g6
F2.5389256477355957
sg7
I3908
sa(dp3186
g6
F2.5751652717590332
sg7
I3905
sa(dp3187
g6
F2.6008219718933105
sg7
I3904
sa(dp3188
g6
F2.632110595703125
sg7
I3903
sa(dp3189
g6
F2.6633391380310059
sg7
I3903
sa(dp3190
g6
F2.6945550441741943
sg7
I3902
sa(dp3191
g6
F2.7271900177001953
sg7
I3901
sa(dp3192
g6
F2.7590324878692627
sg7
I3899
sa(dp3193
g6
F2.7895240783691406
sg7
I3897
sa(dp3194
g6
F2.8208026885986328
sg7
I3898
sa(dp3195
g6
F2.8545680046081543
sg7
I3898
sa(dp3196
g6
F2.8832917213439941
sg7
I3895
sa(dp3197
g6
F2.9145340919494629
sg7
I3817
sa(dp3198
g6
F2.9445641040802002
sg7
I3867
sa(dp3199
g6
F2.9745655059814453
sg7
I3648
sa(dp3200
g6
F3.0108175277709961
sg7
I3894
sa(dp3201
g6
F3.0445766448974609
sg7
I3728
sa(dp3202
g6
F3.0782938003540039
sg7
I3889
sa(dp3203
g6
F3.112030029296875
sg7
I3730
sa(dp3204
g6
F3.140815258026123
sg7
I3725
sa(dp3205
g6
F3.1720681190490723
sg7
I3645
sa(dp3206
g6
F3.2033162117004395
sg7
I3735
sa(dp3207
g6
F3.2345740795135498
sg7
I3727
sa(dp3208
g6
F3.2658276557922363
sg7
I3651
sa(dp3209
g6
F3.2970795631408691
sg7
I3650
sa(dp3210
g6
F3.3282876014709473
sg7
I3765
sa(dp3211
g6
F3.3582797050476074
sg7
I3645
sa(dp3212
g6
F3.3882865905761719
sg7
I3730
sa(dp3213
g6
F3.4195427894592285
sg7
I3644
sa(dp3214
g6
F3.4508142471313477
sg7
I3819
sa(dp3215
g6
F3.4820389747619629
sg7
I3733
sa(dp3216
g6
F3.5132846832275391
sg7
I3736
sa(dp3217
g6
F3.5445618629455566
sg7
I3647
sa(dp3218
g6
F3.5757980346679688
sg7
I3728
sa(dp3219
g6
F3.6021699905395508
sg7
I3650
sa(dp3220
g6
F3.6309332847595215
sg7
I3652
sa(dp3221
g6
F3.6614301204681396
sg7
I3733
sa(dp3222
g6
F3.6945390701293945
sg7
I3649
sa(dp3223
g6
F3.7257962226867676
sg7
I3734
sa(dp3224
g6
F3.7570765018463135
sg7
I3657
sa(dp3225
g6
F3.788332462310791
sg7
I3734
sa(dp3226
g6
F3.8195819854736328
sg7
I3732
sa(dp3227
g6
F3.8509106636047363
sg7
I3651
sa(dp3228
g6
F3.8821086883544922
sg7
I3648
sa(dp3229
g6
F3.9136724472045898
sg7
I3733
sa(dp3230
g6
F3.9449760913848877
sg7
I3565
sa(dp3231
g6
F3.9739336967468262
sg7
I3733
sa(dp3232
g6
F4.0034205913543701
sg7
I3651
sa(dp3233
g6
F4.0396709442138672
sg7
I3732
sa(dp3234
g6
F4.0758042335510254
sg7
I3735
sa(dp3235
g6
F4.1070616245269775
sg7
I3653
sa(dp3236
g6
F4.1383051872253418
sg7
I3648
sa(dp3237
g6
F4.1745100021362305
sg7
I3647
sa(dp3238
g6
F4.208251953125
sg7
I3660
sa(dp3239
g6
F4.2414236068725586
sg7
I3658
sa(dp3240
g6
F4.2745685577392578
sg7
I3710
sa(dp3241
g6
F4.3032975196838379
sg7
I3645
sa(dp3242
g6
F4.3345460891723633
sg7
I3727
sa(dp3243
g6
F4.3658006191253662
sg7
I3673
sa(dp3244
g6
F4.3970427513122559
sg7
I3650
sa(dp3245
g6
F4.4282722473144531
sg7
I3731
sa(dp3246
g6
F4.4594979286193848
sg7
I3675
sa(dp3247
g6
F4.4957935810089111
sg7
I3659
sa(dp3248
g6
F4.5320496559143066
sg7
I3736
sa(dp3249
g6
F4.5632834434509277
sg7
I3737
sa(dp3250
g6
F4.5877010822296143
sg7
I3651
sa(dp3251
g6
F4.6151716709136963
sg7
I3736
sa(dp3252
g6
F4.6494951248168945
sg7
I3651
sa(dp3253
g6
F4.6832900047302246
sg7
I3654
sa(dp3254
g6
F4.7120726108551025
sg7
I3662
sa(dp3255
g6
F4.7432847023010254
sg7
I3656
sa(dp3256
g6
F4.7726390361785889
sg7
I3724
sa(dp3257
g6
F4.8001461029052734
sg7
I3565
sa(dp3258
g6
F4.8345086574554443
sg7
I3656
sa(dp3259
g6
F4.86578369140625
sg7
I3737
sa(dp3260
g6
F4.8970546722412109
sg7
I3734
sa(dp3261
g6
F4.9282960891723633
sg7
I3814
sa(dp3262
g6
F4.9595541954040527
sg7
I3730
sa(dp3263
g6
F4.9907889366149902
sg7
I3732
sa(dp3264
g6
F5.0220375061035156
sg7
I3654
sa(dp3265
g6
F5.0532946586608887
sg7
I3734
sa(dp3266
g6
F5.0845310688018799
sg7
I3657
sa(dp3267
g6
F5.1157975196838379
sg7
I3803
sa(dp3268
g6
F5.1470615863800049
sg7
I3660
sa(dp3269
g6
F5.1782956123352051
sg7
I3667
sa(dp3270
g6
F5.2076716423034668
sg7
I3646
sa(dp3271
g6
F5.2419905662536621
sg7
I3735
sa(dp3272
g6
F5.2732360363006592
sg7
I3652
sa(dp3273
g6
F5.3089256286621094
sg7
I3735
sa(dp3274
g6
F5.3495473861694336
sg7
I3803
sa(dp3275
g6
F5.3858015537261963
sg7
I3734
sa(dp3276
g6
F5.4170422554016113
sg7
I3651
sa(dp3277
g6
F5.4482669830322266
sg7
I3656
sa(dp3278
g6
F5.4795269966125488
sg7
I3737
sa(dp3279
g6
F5.5112524032592773
sg7
I3740
sa(dp3280
g6
F5.5425705909729004
sg7
I3736
sa(dp3281
g6
F5.57147216796875
sg7
I3650
sa(dp3282
g6
F5.6007966995239258
sg7
I3835
sa(dp3283
g6
F5.627044677734375
sg7
I3748
sa(dp3284
g6
F5.6570191383361816
sg7
I3801
sa(dp3285
g6
F5.6920986175537109
sg7
I3742
sa(dp3286
g6
F5.7233476638793945
sg7
I3802
sa(dp3287
g6
F5.7514231204986572
sg7
I3710
sa(dp3288
g6
F5.7845454216003418
sg7
I3723
sa(dp3289
g6
F5.8162450790405273
sg7
I3715
sa(dp3290
g6
F5.8468742370605469
sg7
I3722
sa(dp3291
g6
F5.8746025562286377
sg7
I3727
sa(dp3292
g6
F5.8983454704284668
sg7
I3707
sa(dp3293
g6
F5.9276630878448486
sg7
I3762
sa(dp3294
g6
F5.9571361541748047
sg7
I3736
sa(dp3295
g6
F5.9883875846862793
sg7
I3649
sa(dp3296
g6
F6.0245366096496582
sg7
I3738
sa(dp3297
g6
F6.0607767105102539
sg7
I3741
sa(dp3298
g6
F6.0920956134796143
sg7
I3649
sa(dp3299
g6
F6.123354434967041
sg7
I3873
sa(dp3300
g6
F6.1545236110687256
sg7
I3730
sa(dp3301
g6
F6.1857662200927734
sg7
I3621
sa(dp3302
g6
F6.2195825576782227
sg7
I3724
sa(dp3303
g6
F6.2486765384674072
sg7
I3784
sa(dp3304
g6
F6.2798399925231934
sg7
I3650
sa(dp3305
g6
F6.310814380645752
sg7
I3725
sa(dp3306
g6
F6.342165470123291
sg7
I3764
sa(dp3307
g6
F6.3733146190643311
sg7
I3738
sa(dp3308
g6
F6.4044730663299561
sg7
I3588
sa(dp3309
g6
F6.4382755756378174
sg7
I3732
sa(dp3310
g6
F6.4714512825012207
sg7
I3817
sa(dp3311
g6
F6.505171537399292
sg7
I3711
sa(dp3312
g6
F6.5389015674591064
sg7
I3645
sa(dp3313
g6
F6.5691180229187012
sg7
I3715
sa(dp3314
g6
F6.5947389602661133
sg7
I3808
sa(dp3315
g6
F6.6207852363586426
sg7
I3884
sa(dp3316
g6
F6.6522231101989746
sg7
I3634
sa(dp3317
g6
F6.6834244728088379
sg7
I3811
sa(dp3318
g6
F6.7145106792449951
sg7
I3727
sa(dp3319
g6
F6.7458071708679199
sg7
I3571
sa(dp3320
g6
F6.7770876884460449
sg7
I3549
sa(dp3321
g6
F6.8233585357666016
sg7
I4027
sa(dp3322
g6
F6.864527702331543
sg7
I3792
sa(dp3323
g6
F6.8907513618469238
sg7
I3647
sa(dp3324
g6
F6.9220836162567139
sg7
I3815
sa(dp3325
g6
F6.9533395767211914
sg7
I3647
sa(dp3326
g6
F6.9845085144042969
sg7
I3480
sa(dp3327
g6
F7.0157585144042969
sg7
I3645
sa(dp3328
g6
F7.0475177764892578
sg7
I3891
sa(dp3329
g6
F7.078768253326416
sg7
I3725
sa(dp3330
g6
F7.1095290184020996
sg7
I3740
sa(dp3331
g6
F7.1408181190490723
sg7
I3710
sa(dp3332
g6
F7.1720871925354004
sg7
I3668
sa(dp3333
g6
F7.2032930850982666
sg7
I3862
sa(dp3334
g6
F7.2345170974731445
sg7
I3719
sa(dp3335
g6
F7.270777702331543
sg7
I3631
sa(dp3336
g6
F7.3070864677429199
sg7
I3652
sa(dp3337
g6
F7.3383111953735352
sg7
I3736
sa(dp3338
g6
F7.3695015907287598
sg7
I3563
sa(dp3339
g6
F7.4007761478424072
sg7
I3879
sa(dp3340
g6
F7.4321126937866211
sg7
I3873
sa(dp3341
g6
F7.4758586883544922
sg7
I3572
sa(dp3342
g6
F7.5145125389099121
sg7
I3486
sa(dp3343
g6
F7.5475993156433105
sg7
I3725
sa(dp3344
g6
F7.5857336521148682
sg7
I3654
sa(dp3345
g6
F7.6170966625213623
sg7
I3701
sa(dp3346
g6
F7.6483416557312012
sg7
I3613
sa(dp3347
g6
F7.6795151233673096
sg7
I3488
sa(dp3348
g6
F7.7107675075531006
sg7
I3897
sa(dp3349
g6
F7.742060661315918
sg7
I3720
sa(dp3350
g6
F7.7737994194030762
sg7
I3788
sa(dp3351
g6
F7.8049731254577637
sg7
I3624
sa(dp3352
g6
F7.8396785259246826
sg7
I3876
sa(dp3353
g6
F7.8747241497039795
sg7
I3897
sa(dp3354
g6
F7.9007749557495117
sg7
I3625
sa(dp3355
g6
F7.9320731163024902
sg7
I3558
sa(dp3356
g6
F7.9670746326446533
sg7
I3885
sa(dp3357
g6
F8.0020856857299805
sg7
I3644
sa(dp3358
g6
F8.0333390235900879
sg7
I3630
sa(dp3359
g6
F8.0620186328887939
sg7
I3687
sa(dp3360
g6
F8.0932679176330566
sg7
I3509
sa(dp3361
g6
F8.1270945072174072
sg7
I3644
sa(dp3362
g6
F8.1583499908447266
sg7
I3732
sa(dp3363
g6
F8.1895031929016113
sg7
I3808
sa(dp3364
g6
F8.221247673034668
sg7
I3949
sa(dp3365
g6
F8.2525687217712402
sg7
I3663
sa(dp3366
g6
F8.2883224487304688
sg7
I3633
sa(dp3367
g6
F8.3245182037353516
sg7
I3711
sa(dp3368
g6
F8.3558230400085449
sg7
I3969
sa(dp3369
g6
F8.387127161026001
sg7
I3931
sa(dp3370
g6
F8.4183261394500732
sg7
I3554
sa(dp3371
g6
F8.4476861953735352
sg7
I3645
sa(dp3372
g6
F8.4821152687072754
sg7
I3723
sa(dp3373
g6
F8.5133109092712402
sg7
I3803
sa(dp3374
g6
F8.5395550727844238
sg7
I3624
sa(dp3375
g6
F8.5708420276641846
sg7
I3565
sa(dp3376
g6
F8.602076530456543
sg7
I3783
sa(dp3377
g6
F8.6333184242248535
sg7
I3775
sa(dp3378
g6
F8.6683192253112793
sg7
I3683
sa(dp3379
g6
F8.698383092880249
sg7
I4019
sa(dp3380
g6
F8.7246265411376953
sg7
I3773
sa(dp3381
g6
F8.7559030055999756
sg7
I3697
sa(dp3382
g6
F8.7914936542510986
sg7
I3671
sa(dp3383
g6
F8.8221015930175781
sg7
I3778
sa(dp3384
g6
F8.8483633995056152
sg7
I3813
sa(dp3385
g6
F8.8796150684356689
sg7
I3522
sa(dp3386
g6
F8.9108636379241943
sg7
I3397
sa(dp3387
g6
F8.9421155452728271
sg7
I3615
sa(dp3388
g6
F8.9733610153198242
sg7
I3714
sa(dp3389
g6
F9.0046141147613525
sg7
I3695
sa(dp3390
g6
F9.0358481407165527
sg7
I3886
sa(dp3391
g6
F9.0670700073242188
sg7
I4017
sa(dp3392
g6
F9.1008291244506836
sg7
I3631
sa(dp3393
g6
F9.1290640830993652
sg7
I3662
sa(dp3394
g6
F9.159698486328125
sg7
I3572
sa(dp3395
g6
F9.1908769607543945
sg7
I3702
sa(dp3396
g6
F9.218388557434082
sg7
I3563
sa(dp3397
g6
F9.2563490867614746
sg7
I3649
sa(dp3398
g6
F9.2925646305084229
sg7
I3734
sa(dp3399
g6
F9.3233485221862793
sg7
I3781
sa(dp3400
g6
F9.3545715808868408
sg7
I3507
sa(dp3401
g6
F9.3839669227600098
sg7
I3796
sa(dp3402
g6
F9.4183697700500488
sg7
I3627
sa(dp3403
g6
F9.454627513885498
sg7
I3689
sa(dp3404
g6
F9.485896110534668
sg7
I3598
sa(dp3405
g6
F9.512153148651123
sg7
I3437
sa(dp3406
g6
F9.5384011268615723
sg7
I3035
sa(dp3407
g6
F9.5696182250976562
sg7
I3538
sa(dp3408
g6
F9.6046280860900879
sg7
I3792
sa(dp3409
g6
F9.634636402130127
sg7
I3624
sa(dp3410
g6
F9.6609005928039551
sg7
I3082
sa(dp3411
g6
F9.6870846748352051
sg7
I3778
sa(dp3412
g6
F9.7183432579040527
sg7
I3385
sa(dp3413
g6
F9.7608776092529297
sg7
I3710
sa(dp3414
g6
F9.7996087074279785
sg7
I3147
sa(dp3415
g6
F9.8296184539794922
sg7
I3520
sa(dp3416
g6
F9.8583741188049316
sg7
I3754
sa(dp3417
g6
F9.8896090984344482
sg7
I3393
sa(dp3418
g6
F9.9208641052246094
sg7
I3623
sa(dp3419
g6
F9.9471306800842285
sg7
I3763
sa(dp3420
g6
F9.9783039093017578
sg7
I3128
sa(dp3421
g6
F10.00954008102417
sg7
I3323
sa(dp3422
g6
F10.04086709022522
sg7
I3750
sa(dp3423
g6
F10.072121143341064
sg7
I3079
sa(dp3424
g6
F10.109603643417358
sg7
I3680
sa(dp3425
g6
F10.14709997177124
sg7
I3705
sa(dp3426
g6
F10.173370361328125
sg7
I3588
sa(dp3427
g6
F10.204629182815552
sg7
I2983
sa(dp3428
g6
F10.235851764678955
sg7
I3787
sa(dp3429
g6
F10.267099618911743
sg7
I3614
sa(dp3430
g6
F10.298381090164185
sg7
I3703
sa(dp3431
g6
F10.332134246826172
sg7
I2890
sa(dp3432
g6
F10.370234966278076
sg7
I3659
sa(dp3433
g6
F10.404739618301392
sg7
I2925
sa(dp3434
g6
F10.434763669967651
sg7
I2587
sa(dp3435
g6
F10.46087121963501
sg7
I3222
sa(dp3436
g6
F10.492126941680908
sg7
I3609
sa(dp3437
g6
F10.528373718261719
sg7
I3642
sa(dp3438
g6
F10.564621448516846
sg7
I2853
sa(dp3439
g6
F10.595877170562744
sg7
I2962
sa(dp3440
g6
F10.62713098526001
sg7
I3752
sa(dp3441
g6
F10.658380508422852
sg7
I2439
sa(dp3442
g6
F10.689627647399902
sg7
I2634
sa(dp3443
g6
F10.720886707305908
sg7
I3935
sa(dp3444
g6
F10.752117156982422
sg7
I3561
sa(dp3445
g6
F10.783315658569336
sg7
I3776
sa(dp3446
g6
F10.814562797546387
sg7
I2814
sa(dp3447
g6
F10.8458411693573
sg7
I1712
sa(dp3448
g6
F10.877078056335449
sg7
I3621
sa(dp3449
g6
F10.908321619033813
sg7
I2609
sa(dp3450
g6
F10.934597015380859
sg7
I2143
sa(dp3451
g6
F10.960819721221924
sg7
I2848
sa(dp3452
g6
F10.992069721221924
sg7
I3400
sa(dp3453
g6
F11.038339614868164
sg7
I3370
sa(dp3454
g6
F11.079583168029785
sg7
I3034
sa(dp3455
g6
F11.105849504470825
sg7
I2873
sa(dp3456
g6
F11.134605884552002
sg7
I2940
sa(dp3457
g6
F11.168334484100342
sg7
I3258
sa(dp3458
g6
F11.199571132659912
sg7
I2819
sa(dp3459
g6
F11.230833530426025
sg7
I3290
sa(dp3460
g6
F11.262106657028198
sg7
I3560
sa(dp3461
g6
F11.301467418670654
sg7
I3043
sa(dp3462
g6
F11.340832233428955
sg7
I2864
sa(dp3463
g6
F11.368311405181885
sg7
I3087
sa(dp3464
g6
F11.400829792022705
sg7
I2060
sa(dp3465
g6
F11.432101249694824
sg7
I2197
sa(dp3466
g6
F11.458332538604736
sg7
I3936
sa(dp3467
g6
F11.489591598510742
sg7
I2536
sa(dp3468
g6
F11.520871162414551
sg7
I3536
sa(dp3469
g6
F11.555234432220459
sg7
I2624
sa(dp3470
g6
F11.594577789306641
sg7
I2966
sa(dp3471
g6
F11.625833034515381
sg7
I2452
sa(dp3472
g6
F11.657055139541626
sg7
I2368
sa(dp3473
g6
F11.68842887878418
sg7
I3041
sa(dp3474
g6
F11.719709634780884
sg7
I3214
sa(dp3475
g6
F11.753334999084473
sg7
I3700
sa(dp3476
g6
F11.782036066055298
sg7
I2681
sa(dp3477
g6
F11.813265085220337
sg7
I2576
sa(dp3478
g6
F11.847001075744629
sg7
I3352
sa(dp3479
g6
F11.876229524612427
sg7
I3066
sa(dp3480
g6
F11.907516002655029
sg7
I2962
sa(dp3481
g6
F11.938293933868408
sg7
I1848
sa(dp3482
g6
F11.968265056610107
sg7
I2114
sa(dp3483
g6
F11.999550104141235
sg7
I2897
sa(dp3484
g6
F12.028979063034058
sg7
I1654
sa(dp3485
g6
F12.062092065811157
sg7
I2403
sa(dp3486
g6
F12.093349456787109
sg7
I2650
sa(dp3487
g6
F12.124603033065796
sg7
I2759
sa(dp3488
g6
F12.158346652984619
sg7
I2890
sa(dp3489
g6
F12.187101602554321
sg7
I875
sa(dp3490
g6
F12.218365669250488
sg7
I2388
sa(dp3491
g6
F12.262061595916748
sg7
I3312
sa(dp3492
g6
F12.300740480422974
sg7
I3479
sa(dp3493
g6
F12.332004070281982
sg7
I1570
sa(dp3494
g6
F12.363304615020752
sg7
I3159
sa(dp3495
g6
F12.389588117599487
sg7
I2705
sa(dp3496
g6
F12.420857429504395
sg7
I2014
sa(dp3497
g6
F12.452102184295654
sg7
I3199
sa(dp3498
g6
F12.483326435089111
sg7
I1936
sa(dp3499
g6
F12.519578456878662
sg7
I3089
sa(dp3500
g6
F12.555836200714111
sg7
I2032
sa(dp3501
g6
F12.587056159973145
sg7
I2589
sa(dp3502
g6
F12.616440534591675
sg7
I2964
sa(dp3503
g6
F12.650835037231445
sg7
I3062
sa(dp3504
g6
F12.684573650360107
sg7
I1185
sa(dp3505
g6
F12.713339567184448
sg7
I1394
sa(dp3506
g6
F12.739581108093262
sg7
I3007
sa(dp3507
g6
F12.770827293395996
sg7
I4
sa(dp3508
g6
F12.802065134048462
sg7
I2296
sa(dp3509
g6
F12.833333492279053
sg7
I2982
sa(dp3510
g6
F12.8645920753479
sg7
I2222
sa(dp3511
g6
F12.895808219909668
sg7
I2190
sa(dp3512
g6
F12.927057027816772
sg7
I2073
sa(dp3513
g6
F12.961030960083008
sg7
I2205
sa(dp3514
g6
F13.000240087509155
sg7
I2291
sa(dp3515
g6
F13.031265735626221
sg7
I1666
sa(dp3516
g6
F13.062074184417725
sg7
I1385
sa(dp3517
g6
F13.093330144882202
sg7
I2785
sa(dp3518
g6
F13.124582290649414
sg7
I1976
sa(dp3519
g6
F13.15583324432373
sg7
I2043
sa(dp3520
g6
F13.184576511383057
sg7
I2387
sa(dp3521
g6
F13.215835571289062
sg7
I3065
sa(dp3522
g6
F13.24958348274231
sg7
I2282
sa(dp3523
g6
F13.280826091766357
sg7
I1426
sa(dp3524
g6
F13.312084197998047
sg7
I2202
sa(dp3525
g6
F13.348793983459473
sg7
I2661
sa(dp3526
g6
F13.380002498626709
sg7
I2158
sa(dp3527
g6
F13.40577220916748
sg7
I2628
sa(dp3528
g6
F13.437060594558716
sg7
I2526
sa(dp3529
g6
F13.468332052230835
sg7
I840
sa(dp3530
g6
F13.499582290649414
sg7
I2668
sa(dp3531
g6
F13.530833721160889
sg7
I2168
sa(dp3532
g6
F13.562089443206787
sg7
I1792
sa(dp3533
g6
F13.593334674835205
sg7
I3281
sa(dp3534
g6
F13.624512672424316
sg7
I245
sa(dp3535
g6
F13.655766010284424
sg7
I2581
sa(dp3536
g6
F13.683947086334229
sg7
I2129
sa(dp3537
g6
F13.717054605484009
sg7
I2790
sa(dp3538
g6
F13.748324394226074
sg7
I2223
sa(dp3539
g6
F13.783964157104492
sg7
I589
sa(dp3540
g6
F13.819578170776367
sg7
I1772
sa(dp3541
g6
F13.850841045379639
sg7
I500
sa(dp3542
g6
F13.882101535797119
sg7
I1316
sa(dp3543
g6
F13.911462545394897
sg7
I2342
sa(dp3544
g6
F13.945830106735229
sg7
I899
sa(dp3545
g6
F13.977072238922119
sg7
I1475
sa(dp3546
g6
F14.008328437805176
sg7
I1735
sa(dp3547
g6
F14.049587726593018
sg7
I-64
sa(dp3548
g6
F14.093924522399902
sg7
I2034
sa(dp3549
g6
F14.128301620483398
sg7
I2692
sa(dp3550
g6
F14.159581184387207
sg7
I245
sa(dp3551
g6
F14.19390869140625
sg7
I2114
sa(dp3552
g6
F14.224581718444824
sg7
I-106
sa(dp3553
g6
F14.252772092819214
sg7
I1151
sa(dp3554
g6
F14.282721042633057
sg7
I1058
sa(dp3555
g6
F14.315746068954468
sg7
I418
sa(dp3556
g6
F14.345749139785767
sg7
I2648
sa(dp3557
g6
F14.377081155776978
sg7
I1358
sa(dp3558
g6
F14.405820608139038
sg7
I958
sa(dp3559
g6
F14.429562091827393
sg7
I1726
sa(dp3560
g6
F14.455818176269531
sg7
I2191
sa(dp3561
g6
F14.487098217010498
sg7
I2045
sa(dp3562
g6
F14.518359661102295
sg7
I2122
sa(dp3563
g6
F14.54953670501709
sg7
I2372
sa(dp3564
g6
F14.580787658691406
sg7
I1376
sa(dp3565
g6
F14.612077236175537
sg7
I2918
sa(dp3566
g6
F14.64329195022583
sg7
I2647
sa(dp3567
g6
F14.674534559249878
sg7
I250
sa(dp3568
g6
F14.70631742477417
sg7
I2976
sa(dp3569
g6
F14.737585067749023
sg7
I1792
sa(dp3570
g6
F14.768330097198486
sg7
I2009
sa(dp3571
g6
F14.79772424697876
sg7
I1136
sa(dp3572
g6
F14.832018375396729
sg7
I2246
sa(dp3573
g6
F14.863285064697266
sg7
I515
sa(dp3574
g6
F14.889591217041016
sg7
I183
sa(dp3575
g6
F14.915859222412109
sg7
I-81
sa(dp3576
g6
F14.944581508636475
sg7
I1121
sa(dp3577
g6
F14.97331714630127
sg7
I1627
sa(dp3578
g6
F15.004570960998535
sg7
I1519
sa(dp3579
g6
F15.035831451416016
sg7
I1329
sa(dp3580
g6
F15.067080020904541
sg7
I-443
sa(dp3581
g6
F15.101419925689697
sg7
I1193
sa(dp3582
g6
F15.129509925842285
sg7
I1589
sa(dp3583
g6
F15.159519195556641
sg7
I1318
sa(dp3584
g6
F15.190804481506348
sg7
I1694
sa(dp3585
g6
F15.221445560455322
sg7
I1989
sa(dp3586
g6
F15.257071018218994
sg7
I1915
sa(dp3587
g6
F15.293328762054443
sg7
I2308
sa(dp3588
g6
F15.324520587921143
sg7
I2029
sa(dp3589
g6
F15.361388206481934
sg7
I1397
sa(dp3590
g6
F15.398309707641602
sg7
I2314
sa(dp3591
g6
F15.425159931182861
sg7
I531
sa(dp3592
g6
F15.45704197883606
sg7
I391
sa(dp3593
g6
F15.488315582275391
sg7
I2253
sa(dp3594
g6
F15.521649122238159
sg7
I2456
sa(dp3595
g6
F15.5597825050354
sg7
I2644
sa(dp3596
g6
F15.590795040130615
sg7
I1348
sa(dp3597
g6
F15.622044086456299
sg7
I929
sa(dp3598
g6
F15.655805110931396
sg7
I513
sa(dp3599
g6
F15.689533710479736
sg7
I1521
sa(dp3600
g6
F15.723272562026978
sg7
I986
sa(dp3601
g6
F15.757023096084595
sg7
I2102
sa(dp3602
g6
F15.788290977478027
sg7
I1968
sa(dp3603
g6
F15.819559097290039
sg7
I2177
sa(dp3604
g6
F15.850815057754517
sg7
I2973
sa(dp3605
g6
F15.882006168365479
sg7
I1671
sa(dp3606
g6
F15.913254737854004
sg7
I1217
sa(dp3607
g6
F15.948939085006714
sg7
I-76
sa(dp3608
g6
F15.984555006027222
sg7
I1540
sa(dp3609
g6
F16.015853404998779
sg7
I485
sa(dp3610
g6
F16.04959774017334
sg7
I1335
sa(dp3611
g6
F16.09138822555542
sg7
I1149
sa(dp3612
g6
F16.130762577056885
sg7
I1012
sa(dp3613
g6
F16.162074089050293
sg7
I983
sa(dp3614
g6
F16.193400382995605
sg7
I1847
sa(dp3615
g6
F16.224699020385742
sg7
I1157
sa(dp3616
g6
F16.255949974060059
sg7
I2113
sa(dp3617
g6
F16.287186145782471
sg7
I1517
sa(dp3618
g6
F16.318437099456787
sg7
I398
sa(dp3619
g6
F16.345845699310303
sg7
I1246
sa(dp3620
g6
F16.378336906433105
sg7
I1693
sa(dp3621
g6
F16.409698486328125
sg7
I1085
sa(dp3622
g6
F16.435954093933105
sg7
I352
sa(dp3623
g6
F16.470298528671265
sg7
I784
sa(dp3624
g6
F16.504643440246582
sg7
I2076
sa(dp3625
g6
F16.536448955535889
sg7
I1359
sa(dp3626
g6
F16.565844058990479
sg7
I1825
sa(dp3627
g6
F16.589679002761841
sg7
I2064
sa(dp3628
g6
F16.615939140319824
sg7
I931
sa(dp3629
g6
F16.652183055877686
sg7
I219
sa(dp3630
g6
F16.68842601776123
sg7
I1001
sa(dp3631
g6
F16.719679594039917
sg7
I-915
sa(dp3632
g6
F16.750926971435547
sg7
I580
sa(dp3633
g6
F16.782132148742676
sg7
I1486
sa(dp3634
g6
F16.813393115997314
sg7
I1288
sa(dp3635
g6
F16.8446946144104
sg7
I535
sa(dp3636
g6
F16.880939960479736
sg7
I1216
sa(dp3637
g6
F16.917152404785156
sg7
I1459
sa(dp3638
g6
F16.948400497436523
sg7
I982
sa(dp3639
g6
F16.979678630828857
sg7
I1801
sa(dp3640
g6
F17.012185573577881
sg7
I1722
sa(dp3641
g6
F17.044051647186279
sg7
I620
sa(dp3642
g6
F17.074644088745117
sg7
I-199
sa(dp3643
g6
F17.100901126861572
sg7
I498
sa(dp3644
g6
F17.132160186767578
sg7
I1274
sa(dp3645
g6
F17.16462516784668
sg7
I878
sa(dp3646
g6
F17.197094440460205
sg7
I-84
sa(dp3647
g6
F17.228353023529053
sg7
I-100
sa(dp3648
g6
F17.254612445831299
sg7
I917
sa(dp3649
g6
F17.284604549407959
sg7
I552
sa(dp3650
g6
F17.319622993469238
sg7
I-633
sa(dp3651
g6
F17.350890636444092
sg7
I1335
sa(dp3652
g6
F17.382554054260254
sg7
I1545
sa(dp3653
g6
F17.413801670074463
sg7
I449
sa(dp3654
g6
F17.439619064331055
sg7
I936
sa(dp3655
g6
F17.469584941864014
sg7
I971
sa(dp3656
g6
F17.499544620513916
sg7
I793
sa(dp3657
g6
F17.530843734741211
sg7
I1436
sa(dp3658
g6
F17.565262079238892
sg7
I996
sa(dp3659
g6
F17.608386516571045
sg7
I-136
sa(dp3660
g6
F17.649650573730469
sg7
I625
sa(dp3661
g6
F17.675917148590088
sg7
I882
sa(dp3662
g6
F17.705883502960205
sg7
I-389
sa(dp3663
g6
F17.73709511756897
sg7
I725
sa(dp3664
g6
F17.768347024917603
sg7
I949
sa(dp3665
g6
F17.802738189697266
sg7
I1068
sa(dp3666
g6
F17.832139015197754
sg7
I1249
sa(dp3667
g6
F17.863398551940918
sg7
I644
sa(dp3668
g6
F17.894666194915771
sg7
I1085
sa(dp3669
g6
F17.925910472869873
sg7
I629
sa(dp3670
g6
F17.96152925491333
sg7
I277
sa(dp3671
g6
F17.999025106430054
sg7
I908
sa(dp3672
g6
F18.037132024765015
sg7
I826
sa(dp3673
g6
F18.068389654159546
sg7
I1237
sa(dp3674
g6
F18.099024057388306
sg7
I1084
sa(dp3675
g6
F18.129677295684814
sg7
I1473
sa(dp3676
g6
F18.160106182098389
sg7
I269
sa(dp3677
g6
F18.193197727203369
sg7
I232
sa(dp3678
g6
F18.222132682800293
sg7
I967
sa(dp3679
g6
F18.258353710174561
sg7
I363
sa(dp3680
g6
F18.297127246856689
sg7
I1259
sa(dp3681
g6
F18.32526159286499
sg7
I1795
sa(dp3682
g6
F18.355867624282837
sg7
I208
sa(dp3683
g6
F18.392138481140137
sg7
I1309
sa(dp3684
g6
F18.428395509719849
sg7
I-465
sa(dp3685
g6
F18.459623098373413
sg7
I1190
sa(dp3686
g6
F18.495994567871094
sg7
I78
sa(dp3687
g6
F18.532277584075928
sg7
I1198
sa(dp3688
g6
F18.563416481018066
sg7
I1293
sa(dp3689
g6
F18.594617128372192
sg7
I614
sa(dp3690
g6
F18.623326063156128
sg7
I1007
sa(dp3691
g6
F18.657104969024658
sg7
I-82
sa(dp3692
g6
F18.690873622894287
sg7
I1183
sa(dp3693
g6
F18.724011421203613
sg7
I843
sa(dp3694
g6
F18.759615421295166
sg7
I834
sa(dp3695
g6
F18.790864944458008
sg7
I-506
sa(dp3696
g6
F18.820272922515869
sg7
I1226
sa(dp3697
g6
F18.852776050567627
sg7
I1005
sa(dp3698
g6
F18.882105588912964
sg7
I-286
sa(dp3699
g6
F18.917720556259155
sg7
I1266
sa(dp3700
g6
F18.953428268432617
sg7
I1308
sa(dp3701
g6
F18.982818603515625
sg7
I1157
sa(dp3702
g6
F19.017152070999146
sg7
I1642
sa(dp3703
g6
F19.048394680023193
sg7
I0
sa(dp3704
g6
F19.079673051834106
sg7
I1010
sa(dp3705
g6
F19.110936641693115
sg7
I347
sa(dp3706
g6
F19.142159461975098
sg7
I-56
sa(dp3707
g6
F19.173846244812012
sg7
I858
sa(dp3708
g6
F19.205060005187988
sg7
I-571
sa(dp3709
g6
F19.238360166549683
sg7
I1040
sa(dp3710
g6
F19.267117023468018
sg7
I796
sa(dp3711
g6
F19.296489715576172
sg7
I601
sa(dp3712
g6
F19.330901145935059
sg7
I992
sa(dp3713
g6
F19.365362167358398
sg7
I509
sa(dp3714
g6
F19.399711132049561
sg7
I1322
sa(dp3715
g6
F19.430871486663818
sg7
I642
sa(dp3716
g6
F19.462150096893311
sg7
I-469
sa(dp3717
g6
F19.498369216918945
sg7
I458
sa(dp3718
g6
F19.534589290618896
sg7
I319
sa(dp3719
g6
F19.565838575363159
sg7
I-1242
sa(dp3720
g6
F19.59709358215332
sg7
I-934
sa(dp3721
g6
F19.628345966339111
sg7
I647
sa(dp3722
g6
F19.659601211547852
sg7
I145
sa(dp3723
g6
F19.690842151641846
sg7
I542
sa(dp3724
g6
F19.71709680557251
sg7
I832
sa(dp3725
g6
F19.742732524871826
sg7
I1519
sa(dp3726
g6
F19.768314599990845
sg7
I349
sa(dp3727
g6
F19.794564723968506
sg7
I1020
sa(dp3728
g6
F19.825860500335693
sg7
I1307
sa(dp3729
g6
F19.862102031707764
sg7
I772
sa(dp3730
g6
F19.89586353302002
sg7
I1567
sa(dp3731
g6
F19.927759170532227
sg7
I1067
sa(dp3732
g6
F19.962127685546875
sg7
I-110
sa(dp3733
g6
F19.993358612060547
sg7
I1214
sa(dp3734
g6
F20.024617671966553
sg7
I257
sa(dp3735
g6
F20.055892944335938
sg7
I642
sa(dp3736
g6
F20.08712100982666
sg7
I603
sa(dp3737
g6
F20.118386268615723
sg7
I755
sa(dp3738
g6
F20.149634599685669
sg7
I276
sa(dp3739
g6
F20.180878639221191
sg7
I322
sa(dp3740
g6
F20.212109088897705
sg7
I844
sa(dp3741
g6
F20.243350982666016
sg7
I639
sa(dp3742
g6
F20.273365497589111
sg7
I780
sa(dp3743
g6
F20.303369998931885
sg7
I121
sa(dp3744
g6
F20.32956862449646
sg7
I312
sa(dp3745
g6
F20.357064247131348
sg7
I810
sa(dp3746
g6
F20.388379096984863
sg7
I468
sa(dp3747
g6
F20.418393135070801
sg7
I640
sa(dp3748
g6
F20.449625015258789
sg7
I371
sa(dp3749
g6
F20.480901479721069
sg7
I432
sa(dp3750
g6
F20.51214861869812
sg7
I441
sa(dp3751
g6
F20.54461145401001
sg7
I829
sa(dp3752
g6
F20.572284698486328
sg7
I274
sa(dp3753
g6
F20.603569030761719
sg7
I0
sa(dp3754
g6
F20.641706466674805
sg7
I1183
sa(dp3755
g6
F20.674828052520752
sg7
I112
sa(dp3756
g6
F20.700885057449341
sg7
I371
sa(dp3757
g6
F20.727145671844482
sg7
I519
sa(dp3758
g6
F20.758392095565796
sg7
I398
sa(dp3759
g6
F20.789692401885986
sg7
I1529
sa(dp3760
g6
F20.820955038070679
sg7
I272
sa(dp3761
g6
F20.855710029602051
sg7
I114
sa(dp3762
g6
F20.885063171386719
sg7
I105
sa(dp3763
g6
F20.915879487991333
sg7
I-821
sa(dp3764
g6
F20.95150899887085
sg7
I-264
sa(dp3765
g6
F20.987134456634521
sg7
I94
sa(dp3766
g6
F21.018356561660767
sg7
I-909
sa(dp3767
g6
F21.054591655731201
sg7
I1090
sa(dp3768
g6
F21.090938091278076
sg7
I-300
sa(dp3769
g6
F21.122204303741455
sg7
I1431
sa(dp3770
g6
F21.158386707305908
sg7
I548
sa(dp3771
g6
F21.194632530212402
sg7
I274
sa(dp3772
g6
F21.226316452026367
sg7
I370
sa(dp3773
g6
F21.257580041885376
sg7
I235
sa(dp3774
g6
F21.288383007049561
sg7
I805
sa(dp3775
g6
F21.319621086120605
sg7
I544
sa(dp3776
g6
F21.350941181182861
sg7
I0
sa(dp3777
g6
F21.380934238433838
sg7
I404
sa(dp3778
g6
F21.410938024520874
sg7
I910
sa(dp3779
g6
F21.442206621170044
sg7
I733
sa(dp3780
g6
F21.478394985198975
sg7
I147
sa(dp3781
g6
F21.514610528945923
sg7
I-374
sa(dp3782
g6
F21.545925617218018
sg7
I1020
sa(dp3783
g6
F21.577200412750244
sg7
I990
sa(dp3784
g6
F21.608351707458496
sg7
I742
sa(dp3785
g6
F21.637758255004883
sg7
I1330
sa(dp3786
g6
F21.672164916992188
sg7
I48
sa(dp3787
g6
F21.703384399414062
sg7
I728
sa(dp3788
g6
F21.727795600891113
sg7
I1252
sa(dp3789
g6
F21.757120609283447
sg7
I1109
sa(dp3790
g6
F21.791462898254395
sg7
I320
sa(dp3791
g6
F21.82404613494873
sg7
I732
sa(dp3792
g6
F21.85333514213562
sg7
I888
sa(dp3793
g6
F21.884530067443848
sg7
I0
sa(dp3794
g6
F21.916023015975952
sg7
I-209
sa(dp3795
g6
F21.949260711669922
sg7
I0
sa(dp3796
g6
F21.98719310760498
sg7
I0
sa(dp3797
g6
F22.018377065658569
sg7
I631
sa(dp3798
g6
F22.045867443084717
sg7
I75
sa(dp3799
g6
F22.078771591186523
sg7
I812
sa(dp3800
g6
F22.110031604766846
sg7
I451
sa(dp3801
g6
F22.140931606292725
sg7
I0
sa(dp3802
g6
F22.177130699157715
sg7
I717
sa(dp3803
g6
F22.213345527648926
sg7
I-197
sa(dp3804
g6
F22.24462366104126
sg7
I-157
sa(dp3805
g6
F22.275937557220459
sg7
I297
sa(dp3806
g6
F22.310309171676636
sg7
I-550
sa(dp3807
g6
F22.339611530303955
sg7
I-683
sa(dp3808
g6
F22.365936517715454
sg7
I945
sa(dp3809
g6
F22.397192478179932
sg7
I98
sa(dp3810
g6
F22.42838454246521
sg7
I360
sa(dp3811
g6
F22.459623575210571
sg7
I722
sa(dp3812
g6
F22.491343975067139
sg7
I-661
sa(dp3813
g6
F22.522699117660522
sg7
I221
sa(dp3814
g6
F22.558344125747681
sg7
I495
sa(dp3815
g6
F22.59528112411499
sg7
I658
sa(dp3816
g6
F22.630271434783936
sg7
I823
sa(dp3817
g6
F22.657070159912109
sg7
I903
sa(dp3818
g6
F22.680884122848511
sg7
I495
sa(dp3819
g6
F22.709661483764648
sg7
I0
sa(dp3820
g6
F22.738373756408691
sg7
I0
sa(dp3821
g6
F22.767776966094971
sg7
I631
sa(dp3822
g6
F22.797144174575806
sg7
I620
sa(dp3823
g6
F22.828367710113525
sg7
I638
sa(dp3824
g6
F22.859624862670898
sg7
I0
sa(dp3825
g6
F22.890926122665405
sg7
I895
sa(dp3826
g6
F22.924672603607178
sg7
I1028
sa(dp3827
g6
F22.953365802764893
sg7
I56
sa(dp3828
g6
F22.984615564346313
sg7
I246
sa(dp3829
g6
F23.028985500335693
sg7
I182
sa(dp3830
g6
F23.068371057510376
sg7
I466
sa(dp3831
g6
F23.09957218170166
sg7
I534
sa(dp3832
g6
F23.130875110626221
sg7
I901
sa(dp3833
g6
F23.162171125411987
sg7
I-327
sa(dp3834
g6
F23.193359136581421
sg7
I-192
sa(dp3835
g6
F23.230306148529053
sg7
I442
sa(dp3836
g6
F23.26716136932373
sg7
I1254
sa(dp3837
g6
F23.298329591751099
sg7
I600
sa(dp3838
g6
F23.330850124359131
sg7
I1190
sa(dp3839
g6
F23.363356113433838
sg7
I1449
sa(dp3840
g6
F23.397740602493286
sg7
I-577
sa(dp3841
g6
F23.43210768699646
sg7
I724
sa(dp3842
g6
F23.463353157043457
sg7
I634
sa(dp3843
g6
F23.494615077972412
sg7
I1013
sa(dp3844
g6
F23.525943040847778
sg7
I112
sa(dp3845
g6
F23.557161092758179
sg7
I371
sa(dp3846
g6
F23.588347911834717
sg7
I368
sa(dp3847
g6
F23.615869998931885
sg7
I350
sa(dp3848
g6
F23.648367166519165
sg7
I1087
sa(dp3849
g6
F23.678938150405884
sg7
I533
sa(dp3850
g6
F23.704560041427612
sg7
I252
sa(dp3851
g6
F23.738199710845947
sg7
I452
sa(dp3852
g6
F23.772596597671509
sg7
I-373
sa(dp3853
g6
F23.798997402191162
sg7
I0
sa(dp3854
g6
F23.829571008682251
sg7
I1166
sa(dp3855
g6
F23.86087703704834
sg7
I1088
sa(dp3856
g6
F23.892229557037354
sg7
I0
sa(dp3857
g6
F23.923480987548828
sg7
I514
sa(dp3858
g6
F23.954714775085449
sg7
I840
sa(dp3859
g6
F23.985959529876709
sg7
I468
sa(dp3860
g6
F24.017230033874512
sg7
I544
sa(dp3861
g6
F24.051398515701294
sg7
I-144
sa(dp3862
g6
F24.080139636993408
sg7
I-102
sa(dp3863
g6
F24.110947132110596
sg7
I533
sa(dp3864
g6
F24.14096212387085
sg7
I242
sa(dp3865
g6
F24.170954704284668
sg7
I102
sa(dp3866
g6
F24.202161550521851
sg7
I869
sa(dp3867
g6
F24.233370542526245
sg7
I312
sa(dp3868
g6
F24.267166137695312
sg7
I-953
sa(dp3869
g6
F24.295999050140381
sg7
I540
sa(dp3870
g6
F24.328484535217285
sg7
I526
sa(dp3871
g6
F24.360940933227539
sg7
I261
sa(dp3872
g6
F24.387181758880615
sg7
I0
sa(dp3873
g6
F24.418461561203003
sg7
I327
sa(dp3874
g6
F24.45346736907959
sg7
I373
sa(dp3875
g6
F24.486586570739746
sg7
I821
sa(dp3876
g6
F24.520955085754395
sg7
I-105
sa(dp3877
g6
F24.555978059768677
sg7
I732
sa(dp3878
g6
F24.585987567901611
sg7
I0
sa(dp3879
g6
F24.617220640182495
sg7
I199
sa(dp3880
g6
F24.645968675613403
sg7
I1090
sa(dp3881
g6
F24.672845602035522
sg7
I-186
sa(dp3882
g6
F24.707214117050171
sg7
I-984
sa(dp3883
g6
F24.738466739654541
sg7
I181
sa(dp3884
g6
F24.762820243835449
sg7
I654
sa(dp3885
g6
F24.797153949737549
sg7
I288
sa(dp3886
g6
F24.83967113494873
sg7
I583
sa(dp3887
g6
F24.877226114273071
sg7
I0
sa(dp3888
g6
F24.907224178314209
sg7
I462
sa(dp3889
g6
F24.937223196029663
sg7
I698
sa(dp3890
g6
F24.968474626541138
sg7
I1071
sa(dp3891
g6
F24.999713897705078
sg7
I0
sa(dp3892
g6
F25.035962104797363
sg7
I878
sa(dp3893
g6
F25.072226524353027
sg7
I146
sa(dp3894
g6
F25.10348105430603
sg7
I23
sa(dp3895
g6
F25.134715557098389
sg7
I-51
sa(dp3896
g6
F25.164708614349365
sg7
I1158
sa(dp3897
g6
F25.194708108901978
sg7
I-56
sa(dp3898
g6
F25.225962162017822
sg7
I0
sa(dp3899
g6
F25.257206916809082
sg7
I891
sa(dp3900
g6
F25.288450717926025
sg7
I0
sa(dp3901
g6
F25.319731712341309
sg7
I621
sa(dp3902
g6
F25.354739665985107
sg7
I-1744
sa(dp3903
g6
F25.387235641479492
sg7
I631
sa(dp3904
g6
F25.419741630554199
sg7
I-60
sa(dp3905
g6
F25.462231636047363
sg7
I-163
sa(dp3906
g6
F25.500972509384155
sg7
I642
sa(dp3907
g6
F25.527186155319214
sg7
I0
sa(dp3908
g6
F25.558436632156372
sg7
I25
sa(dp3909
g6
F25.589726448059082
sg7
I-538
sa(dp3910
g6
F25.620989084243774
sg7
I1086
sa(dp3911
g6
F25.655357122421265
sg7
I1679
sa(dp3912
g6
F25.682845592498779
sg7
I107
sa(dp3913
g6
F25.707213640213013
sg7
I-1328
sa(dp3914
g6
F25.739090442657471
sg7
I752
sa(dp3915
g6
F25.775346279144287
sg7
I0
sa(dp3916
g6
F25.805964946746826
sg7
I402
sa(dp3917
g6
F25.83721399307251
sg7
I0
sa(dp3918
g6
F25.868420124053955
sg7
I562
sa(dp3919
g6
F25.899668216705322
sg7
I-153
sa(dp3920
g6
F25.938449144363403
sg7
I1403
sa(dp3921
g6
F25.972204685211182
sg7
I673
sa(dp3922
g6
F26.00346565246582
sg7
I0
sa(dp3923
g6
F26.034673690795898
sg7
I727
sa(dp3924
g6
F26.065942049026489
sg7
I0
sa(dp3925
g6
F26.097232103347778
sg7
I336
sa(dp3926
g6
F26.128447532653809
sg7
I507
sa(dp3927
g6
F26.164714097976685
sg7
I0
sa(dp3928
g6
F26.199070930480957
sg7
I-193
sa(dp3929
g6
F26.233426570892334
sg7
I64
sa(dp3930
g6
F26.264715194702148
sg7
I630
sa(dp3931
g6
F26.295913219451904
sg7
I126
sa(dp3932
g6
F26.327146053314209
sg7
I0
sa(dp3933
g6
F26.358437538146973
sg7
I633
sa(dp3934
g6
F26.392187118530273
sg7
I621
sa(dp3935
g6
F26.420959949493408
sg7
I0
sa(dp3936
g6
F26.452208042144775
sg7
I350
sa(dp3937
g6
F26.483425617218018
sg7
I739
sa(dp3938
g6
F26.507757186889648
sg7
I83
sa(dp3939
g6
F26.537191390991211
sg7
I253
sa(dp3940
g6
F26.56847357749939
sg7
I278
sa(dp3941
g6
F26.607769966125488
sg7
I0
sa(dp3942
g6
F26.65217113494873
sg7
I1075
sa(dp3943
g6
F26.683466672897339
sg7
I409
sa(dp3944
g6
F26.714717626571655
sg7
I316
sa(dp3945
g6
F26.745968580245972
sg7
I0
sa(dp3946
g6
F26.777206420898438
sg7
I99
sa(dp3947
g6
F26.808460712432861
sg7
I446
sa(dp3948
g6
F26.839645624160767
sg7
I-259
sa(dp3949
g6
F26.870301246643066
sg7
I-534
sa(dp3950
g6
F26.899661540985107
sg7
I0
sa(dp3951
g6
F26.933393001556396
sg7
I188
sa(dp3952
g6
F26.963447570800781
sg7
I0
sa(dp3953
g6
F26.99469518661499
sg7
I0
sa(dp3954
g6
F27.027217388153076
sg7
I-191
sa(dp3955
g6
F27.054700136184692
sg7
I504
sa(dp3956
g6
F27.085949420928955
sg7
I224
sa(dp3957
g6
F27.116589069366455
sg7
I-15
sa(dp3958
g6
F27.147209644317627
sg7
I540
sa(dp3959
g6
F27.178425073623657
sg7
I-101
sa(dp3960
g6
F27.20969557762146
sg7
I0
sa(dp3961
g6
F27.24095606803894
sg7
I-60
sa(dp3962
g6
F27.272164106369019
sg7
I-317
sa(dp3963
g6
F27.303417682647705
sg7
I0
sa(dp3964
g6
F27.334702968597412
sg7
I657
sa(dp3965
g6
F27.365954160690308
sg7
I0
sa(dp3966
g6
F27.397195100784302
sg7
I365
sa(dp3967
g6
F27.430937528610229
sg7
I466
sa(dp3968
g6
F27.459700107574463
sg7
I0
sa(dp3969
g6
F27.490958690643311
sg7
I461
sa(dp3970
g6
F27.522185564041138
sg7
I0
sa(dp3971
g6
F27.551552295684814
sg7
I0
sa(dp3972
g6
F27.585944175720215
sg7
I555
sa(dp3973
g6
F27.620931625366211
sg7
I0
sa(dp3974
g6
F27.650894165039062
sg7
I0
sa(dp3975
g6
F27.677160978317261
sg7
I454
sa(dp3976
g6
F27.703444004058838
sg7
I0
sa(dp3977
g6
F27.73512601852417
sg7
I753
sa(dp3978
g6
F27.766377925872803
sg7
I19
sa(dp3979
g6
F27.797195434570312
sg7
I248
sa(dp3980
g6
F27.827149391174316
sg7
I-106
sa(dp3981
g6
F27.85714864730835
sg7
I542
sa(dp3982
g6
F27.888439178466797
sg7
I0
sa(dp3983
g6
F27.919718742370605
sg7
I475
sa(dp3984
g6
F27.950930595397949
sg7
I163
sa(dp3985
g6
F27.98215913772583
sg7
I-618
sa(dp3986
g6
F28.018459558486938
sg7
I547
sa(dp3987
g6
F28.054727077484131
sg7
I-119
sa(dp3988
g6
F28.085978507995605
sg7
I648
sa(dp3989
g6
F28.117186546325684
sg7
I1372
sa(dp3990
g6
F28.148456573486328
sg7
I752
sa(dp3991
g6
F28.179726600646973
sg7
I0
sa(dp3992
g6
F28.210951566696167
sg7
I-357
sa(dp3993
g6
F28.242181062698364
sg7
I1158
sa(dp3994
g6
F28.273431539535522
sg7
I-332
sa(dp3995
g6
F28.304701566696167
sg7
I1449
sa(dp3996
g6
F28.335333585739136
sg7
I-298
sa(dp3997
g6
F28.36590576171875
sg7
I1107
sa(dp3998
g6
F28.397143602371216
sg7
I88
sa(dp3999
g6
F28.428324222564697
sg7
I747
sa(dp4000
g6
F28.4596266746521
sg7
I0
sa(dp4001
g6
F28.489113092422485
sg7
I0
sa(dp4002
g6
F28.518440723419189
sg7
I191
sa(dp4003
g6
F28.548442125320435
sg7
I0
sa(dp4004
g6
F28.57844352722168
sg7
I-12
sa(dp4005
g6
F28.609712600708008
sg7
I459
sa(dp4006
g6
F28.640953540802002
sg7
I77
sa(dp4007
g6
F28.672176599502563
sg7
I963
sa(dp4008
g6
F28.718433618545532
sg7
I283
sa(dp4009
g6
F28.75969123840332
sg7
I-110
sa(dp4010
g6
F28.785939693450928
sg7
I535
sa(dp4011
g6
F28.817172050476074
sg7
I0
sa(dp4012
g6
F28.850918769836426
sg7
I531
sa(dp4013
g6
F28.879690647125244
sg7
I0
sa(dp4014
g6
F28.910925149917603
sg7
I359
sa(dp4015
g6
F28.942161560058594
sg7
I639
sa(dp4016
g6
F28.973430156707764
sg7
I0
sa(dp4017
g6
F29.004639625549316
sg7
I1110
sa(dp4018
g6
F29.035889625549316
sg7
I0
sa(dp4019
g6
F29.072182655334473
sg7
I1197
sa(dp4020
g6
F29.108427047729492
sg7
I53
sa(dp4021
g6
F29.139708518981934
sg7
I-24
sa(dp4022
g6
F29.169075489044189
sg7
I0
sa(dp4023
g6
F29.203402042388916
sg7
I0
sa(dp4024
g6
F29.234698057174683
sg7
I0
sa(dp4025
g6
F29.262200117111206
sg7
I-60
sa(dp4026
g6
F29.294682502746582
sg7
I196
sa(dp4027
g6
F29.325901985168457
sg7
I727
sa(dp4028
g6
F29.357150554656982
sg7
I0
sa(dp4029
g6
F29.388437271118164
sg7
I542
sa(dp4030
g6
F29.419722080230713
sg7
I303
sa(dp4031
g6
F29.464070081710815
sg7
I0
sa(dp4032
g6
F29.503438949584961
sg7
I0
sa(dp4033
g6
F29.529718160629272
sg7
I417
sa(dp4034
g6
F29.5609450340271
sg7
I642
sa(dp4035
g6
F29.592187643051147
sg7
I0
sa(dp4036
g6
F29.624077558517456
sg7
I134
sa(dp4037
g6
F29.655994653701782
sg7
I-1182
sa(dp4038
g6
F29.687220096588135
sg7
I0
sa(dp4039
g6
F29.718420028686523
sg7
I0
sa(dp4040
g6
F29.74963903427124
sg7
I421
sa(dp4041
g6
F29.780879974365234
sg7
I128
sa(dp4042
g6
F29.807172775268555
sg7
I62
sa(dp4043
g6
F29.835898160934448
sg7
I-493
sa(dp4044
g6
F29.869647979736328
sg7
I474
sa(dp4045
g6
F29.900912046432495
sg7
I0
sa(dp4046
g6
F29.932122707366943
sg7
I-104
sa(dp4047
g6
F29.964632511138916
sg7
I342
sa(dp4048
g6
F29.992142200469971
sg7
I0
sa(dp4049
g6
F30.023407697677612
sg7
I371
sa(dp4050
g6
F30.054643630981445
sg7
I627
sa(dp4051
g6
F30.084613084793091
sg7
I605
sa(dp4052
g6
F30.120158195495605
sg7
I-920
sa(dp4053
g6
F30.151432991027832
sg7
I-1164
sa(dp4054
g6
F30.17715048789978
sg7
I65
sa(dp4055
g6
F30.208407402038574
sg7
I-119
sa(dp4056
g6
F30.239692687988281
sg7
I-32
sa(dp4057
g6
F30.26964807510376
sg7
I0
sa(dp4058
g6
F30.304634094238281
sg7
I194
sa(dp4059
g6
F30.335921049118042
sg7
I744
sa(dp4060
g6
F30.362167596817017
sg7
I1540
sa(dp4061
g6
F30.391566753387451
sg7
I-245
sa(dp4062
g6
F30.430346965789795
sg7
I547
sa(dp4063
g6
F30.465930461883545
sg7
I0
sa(dp4064
g6
F30.497125148773193
sg7
I0
sa(dp4065
g6
F30.528401136398315
sg7
I1530
sa(dp4066
g6
F30.559665679931641
sg7
I-263
sa(dp4067
g6
F30.590933084487915
sg7
I392
sa(dp4068
g6
F30.622162103652954
sg7
I-96
sa(dp4069
g6
F30.653381586074829
sg7
I0
sa(dp4070
g6
F30.68459153175354
sg7
I281
sa(dp4071
g6
F30.715873241424561
sg7
I0
sa(dp4072
g6
F30.747145175933838
sg7
I0
sa(dp4073
g6
F30.778383731842041
sg7
I229
sa(dp4074
g6
F30.804631233215332
sg7
I1136
sa(dp4075
g6
F30.835885524749756
sg7
I-1085
sa(dp4076
g6
F30.867158889770508
sg7
I-185
sa(dp4077
g6
F30.898410081863403
sg7
I503
sa(dp4078
g6
F30.93472146987915
sg7
I0
sa(dp4079
g6
F30.970974922180176
sg7
I1335
sa(dp4080
g6
F31.000884532928467
sg7
I0
sa(dp4081
g6
F31.030881404876709
sg7
I0
sa(dp4082
g6
F31.067153453826904
sg7
I559
sa(dp4083
g6
F31.103383541107178
sg7
I0
sa(dp4084
g6
F31.134654998779297
sg7
I1081
sa(dp4085
g6
F31.165920734405518
sg7
I-37
sa(dp4086
g6
F31.197166442871094
sg7
I447
sa(dp4087
g6
F31.228416442871094
sg7
I77
sa(dp4088
g6
F31.259671688079834
sg7
I0
sa(dp4089
g6
F31.295904159545898
sg7
I721
sa(dp4090
g6
F31.332151889801025
sg7
I0
sa(dp4091
g6
F31.361507892608643
sg7
I-226
sa(dp4092
g6
F31.395861625671387
sg7
I-393
sa(dp4093
g6
F31.427145957946777
sg7
I499
sa(dp4094
g6
F31.463402032852173
sg7
I0
sa(dp4095
g6
F31.500949621200562
sg7
I-1070
sa(dp4096
g6
F31.528514623641968
sg7
I-110
sa(dp4097
g6
F31.55977463722229
sg7
I0
sa(dp4098
g6
F31.59095311164856
sg7
I0
sa(dp4099
g6
F31.620903968811035
sg7
I0
sa(dp4100
g6
F31.650978565216064
sg7
I263
sa(dp4101
g6
F31.682295083999634
sg7
I0
sa(dp4102
g6
F31.713510990142822
sg7
I635
sa(dp4103
g6
F31.744705677032471
sg7
I467
sa(dp4104
g6
F31.775949001312256
sg7
I447
sa(dp4105
g6
F31.802210092544556
sg7
I0
sa(dp4106
g6
F31.83164644241333
sg7
I0
sa(dp4107
g6
F31.860918045043945
sg7
I135
sa(dp4108
g6
F31.892164707183838
sg7
I552
sa(dp4109
g6
F31.923481464385986
sg7
I-32
sa(dp4110
g6
F31.954743385314941
sg7
I0
sa(dp4111
g6
F31.986032485961914
sg7
I0
sa(dp4112
g6
F32.013512134552002
sg7
I635
sa(dp4113
g6
F32.046002864837646
sg7
I0
sa(dp4114
g6
F32.080392599105835
sg7
I344
sa(dp4115
g6
F32.116604566574097
sg7
I670
sa(dp4116
g6
F32.149734973907471
sg7
I814
sa(dp4117
g6
F32.180394649505615
sg7
I1573
sa(dp4118
g6
F32.210980176925659
sg7
I0
sa(dp4119
g6
F32.242049694061279
sg7
I881
sa(dp4120
g6
F32.272713661193848
sg7
I830
sa(dp4121
g6
F32.301681041717529
sg7
I0
sa(dp4122
g6
F32.336035251617432
sg7
I0
sa(dp4123
g6
F32.367236614227295
sg7
I0
sa(dp4124
g6
F32.398493528366089
sg7
I259
sa(dp4125
g6
F32.429774045944214
sg7
I-22
sa(dp4126
g6
F32.460953235626221
sg7
I462
sa(dp4127
g6
F32.492200613021851
sg7
I-379
sa(dp4128
g6
F32.523521900177002
sg7
I0
sa(dp4129
g6
F32.55477237701416
sg7
I509
sa(dp4130
g6
F32.585994482040405
sg7
I1175
sa(dp4131
g6
F32.616625070571899
sg7
I0
sa(dp4132
g6
F32.652291536331177
sg7
I262
sa(dp4133
g6
F32.688500881195068
sg7
I-1074
sa(dp4134
g6
F32.719727516174316
sg7
I0
sa(dp4135
g6
F32.751025676727295
sg7
I194
sa(dp4136
g6
F32.782286643981934
sg7
I-231
sa(dp4137
g6
F32.813528060913086
sg7
I448
sa(dp4138
g6
F32.839773178100586
sg7
I0
sa(dp4139
g6
F32.871017456054688
sg7
I-96
sa(dp4140
g6
F32.902249574661255
sg7
I839
sa(dp4141
g6
F32.933449506759644
sg7
I-241
sa(dp4142
g6
F32.96471118927002
sg7
I157
sa(dp4143
g6
F32.996009111404419
sg7
I248
sa(dp4144
g6
F33.037258625030518
sg7
I842
sa(dp4145
g6
F33.073523044586182
sg7
I-194
sa(dp4146
g6
F33.104783058166504
sg7
I0
sa(dp4147
g6
F33.141003131866455
sg7
I-90
sa(dp4148
g6
F33.177256107330322
sg7
I-16
sa(dp4149
g6
F33.210390567779541
sg7
I-2
sa(dp4150
g6
F33.238511562347412
sg7
I458
sa(dp4151
g6
F33.266601085662842
sg7
I-179
sa(dp4152
g6
F33.299689054489136
sg7
I1078
sa(dp4153
g6
F33.335952043533325
sg7
I0
sa(dp4154
g6
F33.370152950286865
sg7
I638
sa(dp4155
g6
F33.403923034667969
sg7
I0
sa(dp4156
g6
F33.434762477874756
sg7
I0
sa(dp4157
g6
F33.471617698669434
sg7
I545
sa(dp4158
g6
F33.522857189178467
sg7
I0
sa(dp4159
g6
F33.562255620956421
sg7
I854
sa(dp4160
g6
F33.592233180999756
sg7
I446
sa(dp4161
g6
F33.623499155044556
sg7
I0
sa(dp4162
g6
F33.651020526885986
sg7
I560
sa(dp4163
g6
F33.689753532409668
sg7
I-21
sa(dp4164
g6
F33.731637001037598
sg7
I-331
sa(dp4165
g6
F33.774766445159912
sg7
I0
sa(dp4166
g6
F33.813507556915283
sg7
I185
sa(dp4167
g6
F33.839767456054688
sg7
I898
sa(dp4168
g6
F33.871015071868896
sg7
I-183
sa(dp4169
g6
F33.902252197265625
sg7
I0
sa(dp4170
g6
F33.9335036277771
sg7
I-152
sa(dp4171
g6
F33.964758634567261
sg7
I-24
sa(dp4172
g6
F33.996007442474365
sg7
I766
sa(dp4173
g6
F34.027241230010986
sg7
I-766
sa(dp4174
g6
F34.058447360992432
sg7
I550
sa(dp4175
g6
F34.087839126586914
sg7
I-625
sa(dp4176
g6
F34.11265754699707
sg7
I0
sa(dp4177
g6
F34.143902063369751
sg7
I1004
sa(dp4178
g6
F34.179752111434937
sg7
I363
sa(dp4179
g6
F34.211007595062256
sg7
I0
sa(dp4180
g6
F34.24227237701416
sg7
I0
sa(dp4181
g6
F34.27665901184082
sg7
I1014
sa(dp4182
g6
F34.308515071868896
sg7
I1572
sa(dp4183
g6
F34.337226152420044
sg7
I-107
sa(dp4184
g6
F34.367842674255371
sg7
I0
sa(dp4185
g6
F34.398471593856812
sg7
I0
sa(dp4186
g6
F34.429744720458984
sg7
I838
sa(dp4187
g6
F34.461007118225098
sg7
I0
sa(dp4188
g6
F34.492249488830566
sg7
I347
sa(dp4189
g6
F34.523499011993408
sg7
I108
sa(dp4190
g6
F34.55471658706665
sg7
I396
sa(dp4191
g6
F34.585942029953003
sg7
I0
sa(dp4192
g6
F34.617215633392334
sg7
I200
sa(dp4193
g6
F34.64848518371582
sg7
I0
sa(dp4194
g6
F34.67598295211792
sg7
I-664
sa(dp4195
g6
F34.708497524261475
sg7
I0
sa(dp4196
g6
F34.745379447937012
sg7
I-97
sa(dp4197
g6
F34.782223224639893
sg7
I0
sa(dp4198
g6
F34.813465118408203
sg7
I548
sa(dp4199
g6
F34.843486547470093
sg7
I0
sa(dp4200
g6
F34.878483533859253
sg7
I0
sa(dp4201
g6
F34.912240505218506
sg7
I-73
sa(dp4202
g6
F34.950983047485352
sg7
I0
sa(dp4203
g6
F34.985974550247192
sg7
I622
sa(dp4204
g6
F35.010992527008057
sg7
I208
sa(dp4205
g6
F35.04100513458252
sg7
I672
sa(dp4206
g6
F35.070970058441162
sg7
I1083
sa(dp4207
g6
F35.102181911468506
sg7
I285
sa(dp4208
g6
F35.133474588394165
sg7
I446
sa(dp4209
g6
F35.164758205413818
sg7
I0
sa(dp4210
g6
F35.198493480682373
sg7
I-177
sa(dp4211
g6
F35.235353946685791
sg7
I-986
sa(dp4212
g6
F35.267253398895264
sg7
I484
sa(dp4213
g6
F35.293510437011719
sg7
I103
sa(dp4214
g6
F35.32720160484314
sg7
I260
sa(dp4215
g6
F35.358441591262817
sg7
I0
sa(dp4216
g6
F35.394120216369629
sg7
I635
sa(dp4217
g6
F35.429750919342041
sg7
I283
sa(dp4218
g6
F35.458498477935791
sg7
I0
sa(dp4219
g6
F35.492220163345337
sg7
I447
sa(dp4220
g6
F35.524700164794922
sg7
I0
sa(dp4221
g6
F35.554687976837158
sg7
I38
sa(dp4222
g6
F35.58342456817627
sg7
I0
sa(dp4223
g6
F35.609694957733154
sg7
I0
sa(dp4224
g6
F35.638464450836182
sg7
I0
sa(dp4225
g6
F35.670161008834839
sg7
I-692
sa(dp4226
g6
F35.70017409324646
sg7
I932
sa(dp4227
g6
F35.731018543243408
sg7
I0
sa(dp4228
g6
F35.761015892028809
sg7
I80
sa(dp4229
g6
F35.792243003845215
sg7
I-103
sa(dp4230
g6
F35.823478698730469
sg7
I0
sa(dp4231
g6
F35.849743604660034
sg7
I-208
sa(dp4232
g6
F35.881004810333252
sg7
I0
sa(dp4233
g6
F35.912225723266602
sg7
I0
sa(dp4234
g6
F35.943492650985718
sg7
I0
sa(dp4235
g6
F35.982264995574951
sg7
I-653
sa(dp4236
g6
F36.014735698699951
sg7
I453
sa(dp4237
g6
F36.039689540863037
sg7
I-674
sa(dp4238
g6
F36.065940618515015
sg7
I0
sa(dp4239
g6
F36.097216129302979
sg7
I0
sa(dp4240
g6
F36.139728546142578
sg7
I0
sa(dp4241
g6
F36.177240610122681
sg7
I0
sa(dp4242
g6
F36.203463077545166
sg7
I538
sa(dp4243
g6
F36.230933666229248
sg7
I822
sa(dp4244
g6
F36.263454914093018
sg7
I157
sa(dp4245
g6
F36.294706583023071
sg7
I0
sa(dp4246
g6
F36.325959205627441
sg7
I301
sa(dp4247
g6
F36.357197999954224
sg7
I0
sa(dp4248
g6
F36.388456106185913
sg7
I0
sa(dp4249
g6
F36.419728994369507
sg7
I638
sa(dp4250
g6
F36.450970649719238
sg7
I838
sa(dp4251
g6
F36.482203483581543
sg7
I203
sa(dp4252
g6
F36.513456583023071
sg7
I-169
sa(dp4253
g6
F36.544732093811035
sg7
I0
sa(dp4254
g6
F36.575944423675537
sg7
I651
sa(dp4255
g6
F36.60908055305481
sg7
I0
sa(dp4256
g6
F36.637204170227051
sg7
I541
sa(dp4257
g6
F36.668413639068604
sg7
I-350
sa(dp4258
g6
F36.699768543243408
sg7
I-191
sa(dp4259
g6
F36.731039047241211
sg7
I0
sa(dp4260
g6
F36.762238502502441
sg7
I0
sa(dp4261
g6
F36.793476581573486
sg7
I317
sa(dp4262
g6
F36.825976133346558
sg7
I0
sa(dp4263
g6
F36.853455543518066
sg7
I-202
sa(dp4264
g6
F36.884766578674316
sg7
I-188
sa(dp4265
g6
F36.916014194488525
sg7
I130
sa(dp4266
g6
F36.946022033691406
sg7
I0
sa(dp4267
g6
F36.976000547409058
sg7
I0
sa(dp4268
g6
F37.007175445556641
sg7
I456
sa(dp4269
g6
F37.039713621139526
sg7
I240
sa(dp4270
g6
F37.070335865020752
sg7
I116
sa(dp4271
g6
F37.099739074707031
sg7
I629
sa(dp4272
g6
F37.13099193572998
sg7
I637
sa(dp4273
g6
F37.162198066711426
sg7
I280
sa(dp4274
g6
F37.193456172943115
sg7
I0
sa(dp4275
g6
F37.224776029586792
sg7
I-254
sa(dp4276
g6
F37.255963087081909
sg7
I-527
sa(dp4277
g6
F37.289212226867676
sg7
I0
sa(dp4278
g6
F37.317383527755737
sg7
I83
sa(dp4279
g6
F37.348450660705566
sg7
I0
sa(dp4280
g6
F37.379777193069458
sg7
I-544
sa(dp4281
g6
F37.411006450653076
sg7
I-408
sa(dp4282
g6
F37.442188739776611
sg7
I0
sa(dp4283
g6
F37.473448753356934
sg7
I0
sa(dp4284
g6
F37.504706621170044
sg7
I1101
sa(dp4285
g6
F37.540962219238281
sg7
I543
sa(dp4286
g6
F37.577219486236572
sg7
I637
sa(dp4287
g6
F37.613469123840332
sg7
I0
sa(dp4288
g6
F37.65228271484375
sg7
I0
sa(dp4289
g6
F37.686014175415039
sg7
I201
sa(dp4290
g6
F37.722189664840698
sg7
I1489
sa(dp4291
g6
F37.753441095352173
sg7
I0
sa(dp4292
g6
F37.784759521484375
sg7
I0
sa(dp4293
g6
F37.816012620925903
sg7
I0
sa(dp4294
g6
F37.84218168258667
sg7
I463
sa(dp4295
g6
F37.867807626724243
sg7
I0
sa(dp4296
g6
F37.893468618392944
sg7
I-67
sa(dp4297
g6
F37.919783115386963
sg7
I0
sa(dp4298
g6
F37.951020240783691
sg7
I68
sa(dp4299
g6
F37.982207059860229
sg7
I0
sa(dp4300
g6
F38.011648654937744
sg7
I0
sa(dp4301
g6
F38.045994997024536
sg7
I-132
sa(dp4302
g6
F38.075318574905396
sg7
I0
sa(dp4303
g6
F38.104774475097656
sg7
I0
sa(dp4304
g6
F38.136026620864868
sg7
I198
sa(dp4305
g6
F38.167216539382935
sg7
I501
sa(dp4306
g6
F38.203457593917847
sg7
I0
sa(dp4307
g6
F38.241584539413452
sg7
I706
sa(dp4308
g6
F38.28021764755249
sg7
I1097
sa(dp4309
g6
F38.311446666717529
sg7
I0
sa(dp4310
g6
F38.342195510864258
sg7
I184
sa(dp4311
g6
F38.375965595245361
sg7
I0
sa(dp4312
g6
F38.407275199890137
sg7
I0
sa(dp4313
g6
F38.436030626296997
sg7
I-10
sa(dp4314
g6
F38.467205047607422
sg7
I0
sa(dp4315
g6
F38.498424053192139
sg7
I-178
sa(dp4316
g6
F38.529737949371338
sg7
I-49
sa(dp4317
g6
F38.564925193786621
sg7
I0
sa(dp4318
g6
F38.59992504119873
sg7
I0
sa(dp4319
g6
F38.631011486053467
sg7
I671
sa(dp4320
g6
F38.66719388961792
sg7
I-278
sa(dp4321
g6
F38.703428983688354
sg7
I547
sa(dp4322
g6
F38.733433723449707
sg7
I43
sa(dp4323
g6
F38.771616458892822
sg7
I0
sa(dp4324
g6
F38.805988550186157
sg7
I890
sa(dp4325
g6
F38.83720588684082
sg7
I0
sa(dp4326
g6
F38.86845850944519
sg7
I0
sa(dp4327
g6
F38.894781112670898
sg7
I0
sa(dp4328
g6
F38.926024913787842
sg7
I0
sa(dp4329
g6
F38.957184791564941
sg7
I0
sa(dp4330
g6
F38.986591577529907
sg7
I0
sa(dp4331
g6
F39.020995616912842
sg7
I459
sa(dp4332
g6
F39.052268505096436
sg7
I231
sa(dp4333
g6
F39.079764127731323
sg7
I511
sa(dp4334
g6
F39.112210273742676
sg7
I2
sa(dp4335
g6
F39.143429040908813
sg7
I0
sa(dp4336
g6
F39.17905855178833
sg7
I0
sa(dp4337
g6
F39.214785099029541
sg7
I0
sa(dp4338
g6
F39.24102258682251
sg7
I0
sa(dp4339
g6
F39.267179489135742
sg7
I0
sa(dp4340
g6
F39.298423528671265
sg7
I0
sa(dp4341
g6
F39.333460092544556
sg7
I16
sa(dp4342
g6
F39.363442897796631
sg7
I-782
sa(dp4343
g6
F39.389769554138184
sg7
I0
sa(dp4344
g6
F39.421030044555664
sg7
I433
sa(dp4345
g6
F39.457256078720093
sg7
I0
sa(dp4346
g6
F39.493496179580688
sg7
I0
sa(dp4347
g6
F39.524733066558838
sg7
I414
sa(dp4348
g6
F39.556040287017822
sg7
I0
sa(dp4349
g6
F39.587255954742432
sg7
I0
sa(dp4350
g6
F39.615950584411621
sg7
I0
sa(dp4351
g6
F39.649740219116211
sg7
I-575
sa(dp4352
g6
F39.681053161621094
sg7
I1044
sa(dp4353
g6
F39.711073398590088
sg7
I456
sa(dp4354
g6
F39.741053581237793
sg7
I0
sa(dp4355
g6
F39.77222466468811
sg7
I0
sa(dp4356
g6
F39.803491592407227
sg7
I0
sa(dp4357
g6
F39.839281558990479
sg7
I-25
sa(dp4358
g6
F39.881175994873047
sg7
I-194
sa(dp4359
g6
F39.918562889099121
sg7
I428
sa(dp4360
g6
F39.952926158905029
sg7
I0
sa(dp4361
g6
F39.982323169708252
sg7
I0
sa(dp4362
g6
F40.011068105697632
sg7
I0
sa(dp4363
g6
F40.044822692871094
sg7
I281
sa(dp4364
g6
F40.076080560684204
sg7
I0
sa(dp4365
g6
F40.107326507568359
sg7
I0
sa(dp4366
g6
F40.138533115386963
sg7
I0
sa(dp4367
g6
F40.16978120803833
sg7
I-3
sa(dp4368
g6
F40.201065540313721
sg7
I449
sa(dp4369
g6
F40.230430126190186
sg7
I0
sa(dp4370
g6
F40.264788627624512
sg7
I0
sa(dp4371
g6
F40.296038150787354
sg7
I-183
sa(dp4372
g6
F40.327296257019043
sg7
I83
sa(dp4373
g6
F40.363960266113281
sg7
I0
sa(dp4374
g6
F40.395207166671753
sg7
I631
sa(dp4375
g6
F40.430403232574463
sg7
I0
sa(dp4376
g6
F40.466042995452881
sg7
I0
sa(dp4377
g6
F40.492284774780273
sg7
I463
sa(dp4378
g6
F40.518521785736084
sg7
I0
sa(dp4379
g6
F40.549783229827881
sg7
I0
sa(dp4380
g6
F40.581012725830078
sg7
I271
sa(dp4381
g6
F40.612263679504395
sg7
I0
sa(dp4382
g6
F40.643503665924072
sg7
I423
sa(dp4383
g6
F40.674762725830078
sg7
I376
sa(dp4384
g6
F40.70601224899292
sg7
I-5
sa(dp4385
g6
F40.737251281738281
sg7
I464
sa(dp4386
g6
F40.768502235412598
sg7
I203
sa(dp4387
g6
F40.799755096435547
sg7
I97
sa(dp4388
g6
F40.831042051315308
sg7
I0
sa(dp4389
g6
F40.862311124801636
sg7
I0
sa(dp4390
g6
F40.90668249130249
sg7
I0
sa(dp4391
g6
F40.943572044372559
sg7
I0
sa(dp4392
g6
F40.972330093383789
sg7
I0
sa(dp4393
g6
F41.003562450408936
sg7
I0
sa(dp4394
g6
F41.035203695297241
sg7
I0
sa(dp4395
g6
F41.066456079483032
sg7
I1234
sa(dp4396
g6
F41.097305297851562
sg7
I-343
sa(dp4397
g6
F41.128674507141113
sg7
I462
sa(dp4398
g6
F41.159945011138916
sg7
I206
sa(dp4399
g6
F41.191075563430786
sg7
I-536
sa(dp4400
g6
F41.227278709411621
sg7
I0
sa(dp4401
g6
F41.268525123596191
sg7
I0
sa(dp4402
g6
F41.309184551239014
sg7
I-108
sa(dp4403
g6
F41.348552703857422
sg7
I637
sa(dp4404
g6
F41.378549098968506
sg7
I636
sa(dp4405
g6
F41.409811019897461
sg7
I1054
sa(dp4406
g6
F41.441467523574829
sg7
I0
sa(dp4407
g6
F41.472716093063354
sg7
I809
sa(dp4408
g6
F41.503567695617676
sg7
I0
sa(dp4409
g6
F41.537301540374756
sg7
I0
sa(dp4410
g6
F41.576044082641602
sg7
I820
sa(dp4411
g6
F41.607273578643799
sg7
I836
sa(dp4412
g6
F41.638504981994629
sg7
I632
sa(dp4413
g6
F41.674760103225708
sg7
I547
sa(dp4414
g6
F41.71103048324585
sg7
I0
sa(dp4415
g6
F41.742297649383545
sg7
I259
sa(dp4416
g6
F41.773554563522339
sg7
I0
sa(dp4417
g6
F41.80479621887207
sg7
I547
sa(dp4418
g6
F41.836043119430542
sg7
I0
sa(dp4419
g6
F41.867243051528931
sg7
I0
sa(dp4420
g6
F41.89592170715332
sg7
I0
sa(dp4421
g6
F41.929738998413086
sg7
I0
sa(dp4422
g6
F41.961074590682983
sg7
I0
sa(dp4423
g6
F41.987303256988525
sg7
I600
sa(dp4424
g6
F42.013541698455811
sg7
I0
sa(dp4425
g6
F42.044793605804443
sg7
I0
sa(dp4426
g6
F42.076091527938843
sg7
I0
sa(dp4427
g6
F42.10610294342041
sg7
I16
sa(dp4428
g6
F42.141042709350586
sg7
I0
sa(dp4429
g6
F42.177303552627563
sg7
I280
sa(dp4430
g6
F42.208557605743408
sg7
I0
sa(dp4431
g6
F42.239764213562012
sg7
I0
sa(dp4432
g6
F42.271033048629761
sg7
I466
sa(dp4433
g6
F42.302307605743408
sg7
I0
sa(dp4434
g6
F42.333547115325928
sg7
I0
sa(dp4435
g6
F42.364792585372925
sg7
I0
sa(dp4436
g6
F42.396227598190308
sg7
I452
sa(dp4437
g6
F42.429362773895264
sg7
I428
sa(dp4438
g6
F42.467294692993164
sg7
I1398
sa(dp4439
g6
F42.498552560806274
sg7
I0
sa(dp4440
g6
F42.529813528060913
sg7
I0
sa(dp4441
g6
F42.561078071594238
sg7
I0
sa(dp4442
g6
F42.592318058013916
sg7
I345
sa(dp4443
g6
F42.633541584014893
sg7
I0
sa(dp4444
g6
F42.669780015945435
sg7
I0
sa(dp4445
g6
F42.696015119552612
sg7
I0
sa(dp4446
g6
F42.727391481399536
sg7
I0
sa(dp4447
g6
F42.759292602539062
sg7
I460
sa(dp4448
g6
F42.791040658950806
sg7
I110
sa(dp4449
g6
F42.822291612625122
sg7
I0
sa(dp4450
g6
F42.851660013198853
sg7
I-331
sa(dp4451
g6
F42.884782791137695
sg7
I496
sa(dp4452
g6
F42.91980504989624
sg7
I0
sa(dp4453
g6
F42.9560546875
sg7
I0
sa(dp4454
g6
F42.987262010574341
sg7
I0
sa(dp4455
g6
F43.018503665924072
sg7
I0
sa(dp4456
g6
F43.049805641174316
sg7
I0
sa(dp4457
g6
F43.091045141220093
sg7
I627
sa(dp4458
g6
F43.132285118103027
sg7
I0
sa(dp4459
g6
F43.158514022827148
sg7
I0
sa(dp4460
g6
F43.189751625061035
sg7
I0
sa(dp4461
g6
F43.222249031066895
sg7
I512
sa(dp4462
g6
F43.254772186279297
sg7
I778
sa(dp4463
g6
F43.298539638519287
sg7
I179
sa(dp4464
g6
F43.337242603302002
sg7
I490
sa(dp4465
g6
F43.368515491485596
sg7
I-196
sa(dp4466
g6
F43.397926092147827
sg7
I0
sa(dp4467
g6
F43.422279596328735
sg7
I0
sa(dp4468
g6
F43.448506593704224
sg7
I0
sa(dp4469
g6
F43.479749202728271
sg7
I0
sa(dp4470
g6
F43.511034488677979
sg7
I352
sa(dp4471
g6
F43.542274475097656
sg7
I-441
sa(dp4472
g6
F43.573505878448486
sg7
I103
sa(dp4473
g6
F43.604751586914062
sg7
I0
sa(dp4474
g6
F43.635951519012451
sg7
I0
sa(dp4475
g6
F43.667210578918457
sg7
I0
sa(dp4476
g6
F43.699154615402222
sg7
I0
sa(dp4477
g6
F43.731039047241211
sg7
I554
sa(dp4478
g6
F43.767912626266479
sg7
I229
sa(dp4479
g6
F43.799812078475952
sg7
I-98
sa(dp4480
g6
F43.829174518585205
sg7
I0
sa(dp4481
g6
F43.863521575927734
sg7
I-261
sa(dp4482
g6
F43.894781589508057
sg7
I-113
sa(dp4483
g6
F43.926028251647949
sg7
I469
sa(dp4484
g6
F43.957281112670898
sg7
I0
sa(dp4485
g6
F43.988532066345215
sg7
I637
sa(dp4486
g6
F44.019766569137573
sg7
I0
sa(dp4487
g6
F44.051022052764893
sg7
I197
sa(dp4488
g6
F44.087274074554443
sg7
I0
sa(dp4489
g6
F44.120994567871094
sg7
I0
sa(dp4490
g6
F44.149752140045166
sg7
I819
sa(dp4491
g6
F44.176023006439209
sg7
I0
sa(dp4492
g6
F44.207295894622803
sg7
I0
sa(dp4493
g6
F44.238564491271973
sg7
I-304
sa(dp4494
g6
F44.26977014541626
sg7
I0
sa(dp4495
g6
F44.300995111465454
sg7
I0
sa(dp4496
g6
F44.331615447998047
sg7
I0
sa(dp4497
g6
F44.367263078689575
sg7
I0
sa(dp4498
g6
F44.403472185134888
sg7
I0
sa(dp4499
g6
F44.434731960296631
sg7
I-230
sa(dp4500
g6
F44.466010570526123
sg7
I501
sa(dp4501
g6
F44.497224092483521
sg7
I0
sa(dp4502
g6
F44.528489112854004
sg7
I0
sa(dp4503
g6
F44.559732437133789
sg7
I127
sa(dp4504
g6
F44.590939521789551
sg7
I0
sa(dp4505
g6
F44.620922565460205
sg7
I642
sa(dp4506
g6
F44.650962591171265
sg7
I0
sa(dp4507
g6
F44.682278156280518
sg7
I0
sa(dp4508
g6
F44.713492870330811
sg7
I629
sa(dp4509
g6
F44.744748115539551
sg7
I-7
sa(dp4510
g6
F44.774162292480469
sg7
I-674
sa(dp4511
g6
F44.808518648147583
sg7
I0
sa(dp4512
g6
F44.839801073074341
sg7
I0
sa(dp4513
g6
F44.869776725769043
sg7
I476
sa(dp4514
g6
F44.899821758270264
sg7
I0
sa(dp4515
g6
F44.930987119674683
sg7
I0
sa(dp4516
g6
F44.965549945831299
sg7
I0
sa(dp4517
g6
F44.995432615280151
sg7
I288
sa(dp4518
g6
F45.026490211486816
sg7
I0
sa(dp4519
g6
F45.057262420654297
sg7
I-536
sa(dp4520
g6
F45.088521003723145
sg7
I90
sa(dp4521
g6
F45.119745254516602
sg7
I0
sa(dp4522
g6
F45.145995616912842
sg7
I0
sa(dp4523
g6
F45.177230596542358
sg7
I0
sa(dp4524
g6
F45.213481426239014
sg7
I0
sa(dp4525
g6
F45.247272491455078
sg7
I-722
sa(dp4526
g6
F45.276015758514404
sg7
I0
sa(dp4527
g6
F45.307262182235718
sg7
I0
sa(dp4528
g6
F45.33723258972168
sg7
I267
sa(dp4529
g6
F45.367230892181396
sg7
I-328
sa(dp4530
g6
F45.398497581481934
sg7
I0
sa(dp4531
g6
F45.429748058319092
sg7
I0
sa(dp4532
g6
F45.465999603271484
sg7
I554
sa(dp4533
g6
F45.502242565155029
sg7
I633
sa(dp4534
g6
F45.533508777618408
sg7
I161
sa(dp4535
g6
F45.564669132232666
sg7
I64
sa(dp4536
g6
F45.595925092697144
sg7
I0
sa(dp4537
g6
F45.627277612686157
sg7
I0
sa(dp4538
g6
F45.658493995666504
sg7
I0
sa(dp4539
g6
F45.689754009246826
sg7
I459
sa(dp4540
g6
F45.734158039093018
sg7
I0
sa(dp4541
g6
F45.773504734039307
sg7
I0
sa(dp4542
g6
F45.804769039154053
sg7
I0
sa(dp4543
g6
F45.846642017364502
sg7
I0
sa(dp4544
g6
F45.883524894714355
sg7
I0
sa(dp4545
g6
F45.914766073226929
sg7
I-40
sa(dp4546
g6
F45.946006059646606
sg7
I0
sa(dp4547
g6
F45.977258682250977
sg7
I964
sa(dp4548
g6
F46.008518695831299
sg7
I0
sa(dp4549
g6
F46.039721965789795
sg7
I0
sa(dp4550
g6
F46.070947170257568
sg7
I199
sa(dp4551
g6
F46.102231025695801
sg7
I-1300
sa(dp4552
g6
F46.133499145507812
sg7
I0
sa(dp4553
g6
F46.164742946624756
sg7
I0
sa(dp4554
g6
F46.195990085601807
sg7
I55
sa(dp4555
g6
F46.222246646881104
sg7
I0
sa(dp4556
g6
F46.253489971160889
sg7
I626
sa(dp4557
g6
F46.284751415252686
sg7
I0
sa(dp4558
g6
F46.316030979156494
sg7
I0
sa(dp4559
g6
F46.348537445068359
sg7
I838
sa(dp4560
g6
F46.376060485839844
sg7
I0
sa(dp4561
g6
F46.40730357170105
sg7
I0
sa(dp4562
g6
F46.439002990722656
sg7
I0
sa(dp4563
g6
F46.468999147415161
sg7
I300
sa(dp4564
g6
F46.498495578765869
sg7
I827
sa(dp4565
g6
F46.52974009513855
sg7
I280
sa(dp4566
g6
F46.560989141464233
sg7
I629
sa(dp4567
g6
F46.592252254486084
sg7
I0
sa(dp4568
g6
F46.623500108718872
sg7
I849
sa(dp4569
g6
F46.654766082763672
sg7
I-539
sa(dp4570
g6
F46.689136981964111
sg7
I717
sa(dp4571
g6
F46.718490123748779
sg7
I0
sa(dp4572
g6
F46.749742031097412
sg7
I0
sa(dp4573
g6
F46.783488273620605
sg7
I0
sa(dp4574
g6
F46.82662558555603
sg7
I210
sa(dp4575
g6
F46.867235660552979
sg7
I-186
sa(dp4576
g6
F46.893486976623535
sg7
I642
sa(dp4577
g6
F46.924761056900024
sg7
I485
sa(dp4578
g6
F46.95600152015686
sg7
I0
sa(dp4579
g6
F46.986620903015137
sg7
I0
sa(dp4580
g6
F47.017254590988159
sg7
I-248
sa(dp4581
g6
F47.048504590988159
sg7
I560
sa(dp4582
g6
F47.078502178192139
sg7
I0
sa(dp4583
g6
F47.103490114212036
sg7
I-263
sa(dp4584
g6
F47.131033420562744
sg7
I0
sa(dp4585
g6
F47.163543701171875
sg7
I0
sa(dp4586
g6
F47.199762105941772
sg7
I630
sa(dp4587
g6
F47.236077547073364
sg7
I552
sa(dp4588
g6
F47.26734447479248
sg7
I552
sa(dp4589
g6
F47.296055793762207
sg7
I0
sa(dp4590
g6
F47.329832077026367
sg7
I-564
sa(dp4591
g6
F47.361124515533447
sg7
I0
sa(dp4592
g6
F47.39115571975708
sg7
I0
sa(dp4593
g6
F47.421137571334839
sg7
I-1552
sa(dp4594
g6
F47.452352523803711
sg7
I631
sa(dp4595
g6
F47.483608245849609
sg7
I0
sa(dp4596
g6
F47.519371509552002
sg7
I-106
sa(dp4597
g6
F47.554934501647949
sg7
I-509
sa(dp4598
g6
F47.586023569107056
sg7
I-606
sa(dp4599
g6
F47.622344493865967
sg7
I75
sa(dp4600
g6
F47.656669616699219
sg7
I675
sa(dp4601
g6
F47.69095253944397
sg7
I-50
sa(dp4602
g6
F47.722188472747803
sg7
I170
sa(dp4603
g6
F47.753432273864746
sg7
I0
sa(dp4604
g6
F47.784687042236328
sg7
I549
sa(dp4605
g6
F47.815938949584961
sg7
I0
sa(dp4606
g6
F47.847175121307373
sg7
I-822
sa(dp4607
g6
F47.873425960540771
sg7
I0
sa(dp4608
g6
F47.904685020446777
sg7
I374
sa(dp4609
g6
F47.940935134887695
sg7
I826
sa(dp4610
g6
F47.972174167633057
sg7
I120
sa(dp4611
g6
F48.003448963165283
sg7
I34
sa(dp4612
g6
F48.034703731536865
sg7
I0
sa(dp4613
g6
F48.06591272354126
sg7
I0
sa(dp4614
g6
F48.097154140472412
sg7
I842
sa(dp4615
g6
F48.128406524658203
sg7
I0
sa(dp4616
g6
F48.159657001495361
sg7
I0
sa(dp4617
g6
F48.190901279449463
sg7
I0
sa(dp4618
g6
F48.222144603729248
sg7
I-112
sa(dp4619
g6
F48.253401756286621
sg7
I-336
sa(dp4620
g6
F48.284650087356567
sg7
I767
sa(dp4621
g6
F48.315891265869141
sg7
I570
sa(dp4622
g6
F48.347325563430786
sg7
I0
sa(dp4623
g6
F48.378630638122559
sg7
I916
sa(dp4624
g6
F48.409791469573975
sg7
I0
sa(dp4625
g6
F48.441095590591431
sg7
I0
sa(dp4626
g6
F48.472352504730225
sg7
I0
sa(dp4627
g6
F48.499812126159668
sg7
I456
sa(dp4628
g6
F48.532273054122925
sg7
I18
sa(dp4629
g6
F48.56356143951416
sg7
I-821
sa(dp4630
g6
F48.592912673950195
sg7
I0
sa(dp4631
g6
F48.634787082672119
sg7
I-119
sa(dp4632
g6
F48.673601627349854
sg7
I0
sa(dp4633
g6
F48.699854135513306
sg7
I0
sa(dp4634
g6
F48.731098651885986
sg7
I0
sa(dp4635
g6
F48.762362003326416
sg7
I-93
sa(dp4636
g6
F48.798728942871094
sg7
I0
sa(dp4637
g6
F48.834993124008179
sg7
I162
sa(dp4638
g6
F48.866123199462891
sg7
I745
sa(dp4639
g6
F48.897373676300049
sg7
I-187
sa(dp4640
g6
F48.92860746383667
sg7
I-253
sa(dp4641
g6
F48.959829807281494
sg7
I0
sa(dp4642
g6
F48.991092205047607
sg7
I153
sa(dp4643
g6
F49.022774219512939
sg7
I0
sa(dp4644
g6
F49.054032564163208
sg7
I196
sa(dp4645
g6
F49.086143016815186
sg7
I-913
sa(dp4646
g6
F49.1142578125
sg7
I0
sa(dp4647
g6
F49.146067142486572
sg7
I277
sa(dp4648
g6
F49.17732572555542
sg7
I0
sa(dp4649
g6
F49.208593606948853
sg7
I428
sa(dp4650
g6
F49.239831447601318
sg7
I258
sa(dp4651
g6
F49.271096229553223
sg7
I258
sa(dp4652
g6
F49.302355051040649
sg7
I-422
sa(dp4653
g6
F49.333595752716064
sg7
I-885
sa(dp4654
g6
F49.364840507507324
sg7
I0
sa(dp4655
g6
F49.396100044250488
sg7
I-398
sa(dp4656
g6
F49.43234658241272
sg7
I0
sa(dp4657
g6
F49.468565464019775
sg7
I372
sa(dp4658
g6
F49.499828100204468
sg7
I-703
sa(dp4659
g6
F49.531102657318115
sg7
I0
sa(dp4660
g6
F49.57548189163208
sg7
I-194
sa(dp4661
g6
F49.614850044250488
sg7
I584
sa(dp4662
g6
F49.641086101531982
sg7
I349
sa(dp4663
g6
F49.672369003295898
sg7
I0
sa(dp4664
g6
F49.703608989715576
sg7
I-335
sa(dp4665
g6
F49.729794025421143
sg7
I519
sa(dp4666
g6
F49.761066675186157
sg7
I157
sa(dp4667
g6
F49.792339086532593
sg7
I575
sa(dp4668
g6
F49.823647499084473
sg7
I0
sa(dp4669
g6
F49.854889631271362
sg7
I-257
sa(dp4670
g6
F49.886088132858276
sg7
I-934
sa(dp4671
g6
F49.922338962554932
sg7
I-264
sa(dp4672
g6
F49.956705093383789
sg7
I-910
sa(dp4673
g6
F49.991085529327393
sg7
I0
sasa.